
Traffic Light Control System.elf:     file format elf32-avr

Sections:
Idx Name          Size      VMA       LMA       File off  Algn
  0 .text         00001350  00000000  00000000  00000094  2**1
                  CONTENTS, ALLOC, LOAD, READONLY, CODE
  1 .data         00000054  00800060  00001350  000013e4  2**0
                  CONTENTS, ALLOC, LOAD, DATA
  2 .bss          00000023  008000b4  008000b4  00001438  2**0
                  ALLOC
  3 .comment      00000030  00000000  00000000  00001438  2**0
                  CONTENTS, READONLY
  4 .note.gnu.avr.deviceinfo 0000003c  00000000  00000000  00001468  2**2
                  CONTENTS, READONLY
  5 .debug_aranges 000002b0  00000000  00000000  000014a4  2**0
                  CONTENTS, READONLY, DEBUGGING
  6 .debug_info   00002ad2  00000000  00000000  00001754  2**0
                  CONTENTS, READONLY, DEBUGGING
  7 .debug_abbrev 00000fcb  00000000  00000000  00004226  2**0
                  CONTENTS, READONLY, DEBUGGING
  8 .debug_line   00001a95  00000000  00000000  000051f1  2**0
                  CONTENTS, READONLY, DEBUGGING
  9 .debug_frame  000006a8  00000000  00000000  00006c88  2**2
                  CONTENTS, READONLY, DEBUGGING
 10 .debug_str    00000d94  00000000  00000000  00007330  2**0
                  CONTENTS, READONLY, DEBUGGING
 11 .debug_loc    000020ab  00000000  00000000  000080c4  2**0
                  CONTENTS, READONLY, DEBUGGING
 12 .debug_ranges 00000248  00000000  00000000  0000a16f  2**0
                  CONTENTS, READONLY, DEBUGGING

Disassembly of section .text:

00000000 <__vectors>:
       0:	0c 94 2a 00 	jmp	0x54	; 0x54 <__ctors_end>
       4:	0c 94 4b 05 	jmp	0xa96	; 0xa96 <__vector_1>
       8:	0c 94 78 05 	jmp	0xaf0	; 0xaf0 <__vector_2>
       c:	0c 94 a5 05 	jmp	0xb4a	; 0xb4a <__vector_3>
      10:	0c 94 47 00 	jmp	0x8e	; 0x8e <__bad_interrupt>
      14:	0c 94 47 00 	jmp	0x8e	; 0x8e <__bad_interrupt>
      18:	0c 94 47 00 	jmp	0x8e	; 0x8e <__bad_interrupt>
      1c:	0c 94 47 00 	jmp	0x8e	; 0x8e <__bad_interrupt>
      20:	0c 94 47 00 	jmp	0x8e	; 0x8e <__bad_interrupt>
      24:	0c 94 47 00 	jmp	0x8e	; 0x8e <__bad_interrupt>
      28:	0c 94 47 07 	jmp	0xe8e	; 0xe8e <__vector_10>
      2c:	0c 94 eb 06 	jmp	0xdd6	; 0xdd6 <__vector_11>
      30:	0c 94 47 00 	jmp	0x8e	; 0x8e <__bad_interrupt>
      34:	0c 94 47 00 	jmp	0x8e	; 0x8e <__bad_interrupt>
      38:	0c 94 47 00 	jmp	0x8e	; 0x8e <__bad_interrupt>
      3c:	0c 94 47 00 	jmp	0x8e	; 0x8e <__bad_interrupt>
      40:	0c 94 47 00 	jmp	0x8e	; 0x8e <__bad_interrupt>
      44:	0c 94 47 00 	jmp	0x8e	; 0x8e <__bad_interrupt>
      48:	0c 94 47 00 	jmp	0x8e	; 0x8e <__bad_interrupt>
      4c:	0c 94 47 00 	jmp	0x8e	; 0x8e <__bad_interrupt>
      50:	0c 94 47 00 	jmp	0x8e	; 0x8e <__bad_interrupt>

00000054 <__ctors_end>:
      54:	11 24       	eor	r1, r1
      56:	1f be       	out	0x3f, r1	; 63
      58:	cf e5       	ldi	r28, 0x5F	; 95
      5a:	d8 e0       	ldi	r29, 0x08	; 8
      5c:	de bf       	out	0x3e, r29	; 62
      5e:	cd bf       	out	0x3d, r28	; 61

00000060 <__do_copy_data>:
      60:	10 e0       	ldi	r17, 0x00	; 0
      62:	a0 e6       	ldi	r26, 0x60	; 96
      64:	b0 e0       	ldi	r27, 0x00	; 0
      66:	e0 e5       	ldi	r30, 0x50	; 80
      68:	f3 e1       	ldi	r31, 0x13	; 19
      6a:	02 c0       	rjmp	.+4      	; 0x70 <__do_copy_data+0x10>
      6c:	05 90       	lpm	r0, Z+
      6e:	0d 92       	st	X+, r0
      70:	a4 3b       	cpi	r26, 0xB4	; 180
      72:	b1 07       	cpc	r27, r17
      74:	d9 f7       	brne	.-10     	; 0x6c <__do_copy_data+0xc>

00000076 <__do_clear_bss>:
      76:	20 e0       	ldi	r18, 0x00	; 0
      78:	a4 eb       	ldi	r26, 0xB4	; 180
      7a:	b0 e0       	ldi	r27, 0x00	; 0
      7c:	01 c0       	rjmp	.+2      	; 0x80 <.do_clear_bss_start>

0000007e <.do_clear_bss_loop>:
      7e:	1d 92       	st	X+, r1

00000080 <.do_clear_bss_start>:
      80:	a7 3d       	cpi	r26, 0xD7	; 215
      82:	b2 07       	cpc	r27, r18
      84:	e1 f7       	brne	.-8      	; 0x7e <.do_clear_bss_loop>
      86:	0e 94 97 03 	call	0x72e	; 0x72e <main>
      8a:	0c 94 a6 09 	jmp	0x134c	; 0x134c <_exit>

0000008e <__bad_interrupt>:
      8e:	0c 94 00 00 	jmp	0	; 0x0 <__vectors>

00000092 <TRAFFIC_CONTROL_StvidSwitchFromNormalToPedestrain>:

u8 flag;

volatile void TRAFFIC_CONTROL_StvidSwitchFromNormalToPedestrain(void *p)
{
	state = Pedestrain_Mode;
      92:	81 e0       	ldi	r24, 0x01	; 1
      94:	80 93 d5 00 	sts	0x00D5, r24	; 0x8000d5 <state>
      98:	08 95       	ret

0000009a <Change_Current_Car_State>:
	}
}

volatile void Change_Current_Car_State(void)
{
	flag = 1;
      9a:	81 e0       	ldi	r24, 0x01	; 1
      9c:	80 93 d4 00 	sts	0x00D4, r24	; 0x8000d4 <flag>
	
	switch(curr_car)
      a0:	80 91 d2 00 	lds	r24, 0x00D2	; 0x8000d2 <curr_car>
      a4:	81 30       	cpi	r24, 0x01	; 1
      a6:	51 f0       	breq	.+20     	; 0xbc <Change_Current_Car_State+0x22>
      a8:	18 f0       	brcs	.+6      	; 0xb0 <Change_Current_Car_State+0x16>
      aa:	82 30       	cpi	r24, 0x02	; 2
      ac:	c1 f0       	breq	.+48     	; 0xde <Change_Current_Car_State+0x44>
      ae:	1c c0       	rjmp	.+56     	; 0xe8 <Change_Current_Car_State+0x4e>
	{
		case CAR_RED:
		prev_car = curr_car;
      b0:	80 93 d3 00 	sts	0x00D3, r24	; 0x8000d3 <prev_car>
		curr_car = CAR_YELLOW;
      b4:	81 e0       	ldi	r24, 0x01	; 1
      b6:	80 93 d2 00 	sts	0x00D2, r24	; 0x8000d2 <curr_car>
		break;
      ba:	16 c0       	rjmp	.+44     	; 0xe8 <Change_Current_Car_State+0x4e>
		
		case CAR_YELLOW:
		if(prev_car == CAR_RED)
      bc:	90 91 d3 00 	lds	r25, 0x00D3	; 0x8000d3 <prev_car>
      c0:	91 11       	cpse	r25, r1
      c2:	06 c0       	rjmp	.+12     	; 0xd0 <Change_Current_Car_State+0x36>
		{
			prev_car = curr_car;
      c4:	80 93 d3 00 	sts	0x00D3, r24	; 0x8000d3 <prev_car>
			curr_car = CAR_GREEN;
      c8:	82 e0       	ldi	r24, 0x02	; 2
      ca:	80 93 d2 00 	sts	0x00D2, r24	; 0x8000d2 <curr_car>
      ce:	0c c0       	rjmp	.+24     	; 0xe8 <Change_Current_Car_State+0x4e>
		}
		else if(prev_car == CAR_GREEN)
      d0:	92 30       	cpi	r25, 0x02	; 2
      d2:	51 f4       	brne	.+20     	; 0xe8 <Change_Current_Car_State+0x4e>
		{
			prev_car = curr_car;
      d4:	80 93 d3 00 	sts	0x00D3, r24	; 0x8000d3 <prev_car>
			curr_car = CAR_RED;
      d8:	10 92 d2 00 	sts	0x00D2, r1	; 0x8000d2 <curr_car>
      dc:	05 c0       	rjmp	.+10     	; 0xe8 <Change_Current_Car_State+0x4e>
		}
		break;
		
		case CAR_GREEN:
		prev_car = curr_car;
      de:	80 93 d3 00 	sts	0x00D3, r24	; 0x8000d3 <prev_car>
		curr_car = CAR_YELLOW;
      e2:	81 e0       	ldi	r24, 0x01	; 1
      e4:	80 93 d2 00 	sts	0x00D2, r24	; 0x8000d2 <curr_car>
		break;
	}
	
	LCD_vidClearScreen();
      e8:	0e 94 e6 02 	call	0x5cc	; 0x5cc <LCD_vidClearScreen>
	LED_enuTurnOFF(&LED_AstrLedConfig[curr_pedestrain]);
      ec:	80 91 d6 00 	lds	r24, 0x00D6	; 0x8000d6 <curr_pedestrain>
      f0:	90 e0       	ldi	r25, 0x00	; 0
      f2:	88 0f       	add	r24, r24
      f4:	99 1f       	adc	r25, r25
      f6:	88 0f       	add	r24, r24
      f8:	99 1f       	adc	r25, r25
      fa:	80 5a       	subi	r24, 0xA0	; 160
      fc:	9f 4f       	sbci	r25, 0xFF	; 255
      fe:	0e 94 76 03 	call	0x6ec	; 0x6ec <LED_enuTurnOFF>
     102:	08 95       	ret

00000104 <TRAFFIC_CONTROL_enuInit>:

ES_t TRAFFIC_CONTROL_enuInit(void)
{
	ES_t Local_enuErrorState = ES_NOK;
	
	LCD_enuInit();
     104:	0e 94 1a 02 	call	0x434	; 0x434 <LCD_enuInit>
	
	TIMER0_enuInit();
     108:	0e 94 df 05 	call	0xbbe	; 0xbbe <TIMER0_enuInit>
	
	DIO_enuSetPinDirection(DIO_u8PORTD, DIO_u8PIN2, DIO_u8INPUT);
     10c:	40 e0       	ldi	r20, 0x00	; 0
     10e:	62 e0       	ldi	r22, 0x02	; 2
     110:	83 e0       	ldi	r24, 0x03	; 3
     112:	0e 94 9c 03 	call	0x738	; 0x738 <DIO_enuSetPinDirection>
	DIO_enuSetPinVal(DIO_u8PORTD, DIO_u8PIN2, DIO_u8PULL_UP);
     116:	41 e0       	ldi	r20, 0x01	; 1
     118:	62 e0       	ldi	r22, 0x02	; 2
     11a:	83 e0       	ldi	r24, 0x03	; 3
     11c:	0e 94 0e 04 	call	0x81c	; 0x81c <DIO_enuSetPinVal>
	
	EXTI_enuInit(EXTI_AStrEXTI_Config);
     120:	88 e7       	ldi	r24, 0x78	; 120
     122:	90 e0       	ldi	r25, 0x00	; 0
     124:	0e 94 80 04 	call	0x900	; 0x900 <EXTI_enuInit>
	EXTI_enuEnable(EXTI0);
     128:	80 e0       	ldi	r24, 0x00	; 0
     12a:	0e 94 10 05 	call	0xa20	; 0xa20 <EXTI_enuEnable>
	EXTI_enuCallBackFunc(&TRAFFIC_CONTROL_StvidSwitchFromNormalToPedestrain, NULL,EXTI0);
     12e:	40 e0       	ldi	r20, 0x00	; 0
     130:	60 e0       	ldi	r22, 0x00	; 0
     132:	70 e0       	ldi	r23, 0x00	; 0
     134:	89 e4       	ldi	r24, 0x49	; 73
     136:	90 e0       	ldi	r25, 0x00	; 0
     138:	0e 94 34 05 	call	0xa68	; 0xa68 <EXTI_enuCallBackFunc>
	
	LED_enuINIT(LED_AstrLedConfig);
     13c:	80 e6       	ldi	r24, 0x60	; 96
     13e:	90 e0       	ldi	r25, 0x00	; 0
     140:	0e 94 05 03 	call	0x60a	; 0x60a <LED_enuINIT>
	
	state = Normal_Mode;
     144:	10 92 d5 00 	sts	0x00D5, r1	; 0x8000d5 <state>
	prev_car = CAR_RED;
     148:	10 92 d3 00 	sts	0x00D3, r1	; 0x8000d3 <prev_car>
	curr_car = CAR_RED;
     14c:	10 92 d2 00 	sts	0x00D2, r1	; 0x8000d2 <curr_car>
	flag = 1;
     150:	81 e0       	ldi	r24, 0x01	; 1
     152:	80 93 d4 00 	sts	0x00D4, r24	; 0x8000d4 <flag>
	
	TIMER0_enuEnableOVFInterrupt();
     156:	0e 94 e6 06 	call	0xdcc	; 0xdcc <TIMER0_enuEnableOVFInterrupt>
	
	GIE_enuGloable_Interrupt_Enable();
     15a:	0e 94 d2 05 	call	0xba4	; 0xba4 <GIE_enuGloable_Interrupt_Enable>
	
	return Local_enuErrorState;
}
     15e:	81 e0       	ldi	r24, 0x01	; 1
     160:	08 95       	ret

00000162 <Run_Normal_Mode>:
	return Local_enuErrorState;
}

void Run_Normal_Mode(void)
{
	if(flag)
     162:	80 91 d4 00 	lds	r24, 0x00D4	; 0x8000d4 <flag>
     166:	88 23       	and	r24, r24
     168:	11 f1       	breq	.+68     	; 0x1ae <Run_Normal_Mode+0x4c>
	{
		LED_enuTurnOFF(&LED_AstrLedConfig[prev_car]);
     16a:	80 91 d3 00 	lds	r24, 0x00D3	; 0x8000d3 <prev_car>
     16e:	90 e0       	ldi	r25, 0x00	; 0
     170:	88 0f       	add	r24, r24
     172:	99 1f       	adc	r25, r25
     174:	88 0f       	add	r24, r24
     176:	99 1f       	adc	r25, r25
     178:	80 5a       	subi	r24, 0xA0	; 160
     17a:	9f 4f       	sbci	r25, 0xFF	; 255
     17c:	0e 94 76 03 	call	0x6ec	; 0x6ec <LED_enuTurnOFF>
		LED_enuTurnON(&LED_AstrLedConfig[curr_car]);
     180:	80 91 d2 00 	lds	r24, 0x00D2	; 0x8000d2 <curr_car>
     184:	90 e0       	ldi	r25, 0x00	; 0
     186:	88 0f       	add	r24, r24
     188:	99 1f       	adc	r25, r25
     18a:	88 0f       	add	r24, r24
     18c:	99 1f       	adc	r25, r25
     18e:	80 5a       	subi	r24, 0xA0	; 160
     190:	9f 4f       	sbci	r25, 0xFF	; 255
     192:	0e 94 55 03 	call	0x6aa	; 0x6aa <LED_enuTurnON>
		TIMER0_enuDelayMilliSecondASyn(3500, (void (*)(void*))&Change_Current_Car_State, NULL);
     196:	20 e0       	ldi	r18, 0x00	; 0
     198:	30 e0       	ldi	r19, 0x00	; 0
     19a:	4d e4       	ldi	r20, 0x4D	; 77
     19c:	50 e0       	ldi	r21, 0x00	; 0
     19e:	6c ea       	ldi	r22, 0xAC	; 172
     1a0:	7d e0       	ldi	r23, 0x0D	; 13
     1a2:	80 e0       	ldi	r24, 0x00	; 0
     1a4:	90 e0       	ldi	r25, 0x00	; 0
     1a6:	0e 94 6e 06 	call	0xcdc	; 0xcdc <TIMER0_enuDelayMilliSecondASyn>
		flag = 0;
     1aa:	10 92 d4 00 	sts	0x00D4, r1	; 0x8000d4 <flag>
     1ae:	08 95       	ret

000001b0 <STOP>:
	GIE_enuGloable_Interrupt_Enable();
}

void STOP(void)
{
	LCD_vidClearScreen();
     1b0:	0e 94 e6 02 	call	0x5cc	; 0x5cc <LCD_vidClearScreen>
	LCD_enuWriteString((u8 *)"     STOP!!     ");
     1b4:	81 e8       	ldi	r24, 0x81	; 129
     1b6:	90 e0       	ldi	r25, 0x00	; 0
     1b8:	0e 94 f3 02 	call	0x5e6	; 0x5e6 <LCD_enuWriteString>
	curr_pedestrain = PEDESTRAIN_RED;
     1bc:	83 e0       	ldi	r24, 0x03	; 3
     1be:	80 93 d6 00 	sts	0x00D6, r24	; 0x8000d6 <curr_pedestrain>
	LED_enuTurnON(&LED_AstrLedConfig[curr_pedestrain]);
     1c2:	8c e6       	ldi	r24, 0x6C	; 108
     1c4:	90 e0       	ldi	r25, 0x00	; 0
     1c6:	0e 94 55 03 	call	0x6aa	; 0x6aa <LED_enuTurnON>
	TIMER0_enuDelayMilliSecondSyn(2000);
     1ca:	60 ed       	ldi	r22, 0xD0	; 208
     1cc:	77 e0       	ldi	r23, 0x07	; 7
     1ce:	80 e0       	ldi	r24, 0x00	; 0
     1d0:	90 e0       	ldi	r25, 0x00	; 0
     1d2:	0e 94 ff 05 	call	0xbfe	; 0xbfe <TIMER0_enuDelayMilliSecondSyn>
     1d6:	08 95       	ret

000001d8 <READY>:
}

void READY(void)
{
	LCD_vidClearScreen();
     1d8:	0e 94 e6 02 	call	0x5cc	; 0x5cc <LCD_vidClearScreen>
	LCD_enuWriteString((u8 *)"     #READY     ");
     1dc:	82 e9       	ldi	r24, 0x92	; 146
     1de:	90 e0       	ldi	r25, 0x00	; 0
     1e0:	0e 94 f3 02 	call	0x5e6	; 0x5e6 <LCD_enuWriteString>
	LED_enuTurnOFF(&LED_AstrLedConfig[curr_car]);
     1e4:	80 91 d2 00 	lds	r24, 0x00D2	; 0x8000d2 <curr_car>
     1e8:	90 e0       	ldi	r25, 0x00	; 0
     1ea:	88 0f       	add	r24, r24
     1ec:	99 1f       	adc	r25, r25
     1ee:	88 0f       	add	r24, r24
     1f0:	99 1f       	adc	r25, r25
     1f2:	80 5a       	subi	r24, 0xA0	; 160
     1f4:	9f 4f       	sbci	r25, 0xFF	; 255
     1f6:	0e 94 76 03 	call	0x6ec	; 0x6ec <LED_enuTurnOFF>
	LED_enuTurnOFF(&LED_AstrLedConfig[curr_pedestrain]);
     1fa:	80 91 d6 00 	lds	r24, 0x00D6	; 0x8000d6 <curr_pedestrain>
     1fe:	90 e0       	ldi	r25, 0x00	; 0
     200:	88 0f       	add	r24, r24
     202:	99 1f       	adc	r25, r25
     204:	88 0f       	add	r24, r24
     206:	99 1f       	adc	r25, r25
     208:	80 5a       	subi	r24, 0xA0	; 160
     20a:	9f 4f       	sbci	r25, 0xFF	; 255
     20c:	0e 94 76 03 	call	0x6ec	; 0x6ec <LED_enuTurnOFF>
	curr_pedestrain = PEDESTRAIN_YELLOW;
     210:	84 e0       	ldi	r24, 0x04	; 4
     212:	80 93 d6 00 	sts	0x00D6, r24	; 0x8000d6 <curr_pedestrain>
	curr_car = CAR_YELLOW;
     216:	81 e0       	ldi	r24, 0x01	; 1
     218:	80 93 d2 00 	sts	0x00D2, r24	; 0x8000d2 <curr_car>
	LED_enuTurnON(&LED_AstrLedConfig[curr_car]);
     21c:	84 e6       	ldi	r24, 0x64	; 100
     21e:	90 e0       	ldi	r25, 0x00	; 0
     220:	0e 94 55 03 	call	0x6aa	; 0x6aa <LED_enuTurnON>
	LED_enuTurnON(&LED_AstrLedConfig[curr_pedestrain]);
     224:	80 91 d6 00 	lds	r24, 0x00D6	; 0x8000d6 <curr_pedestrain>
     228:	90 e0       	ldi	r25, 0x00	; 0
     22a:	88 0f       	add	r24, r24
     22c:	99 1f       	adc	r25, r25
     22e:	88 0f       	add	r24, r24
     230:	99 1f       	adc	r25, r25
     232:	80 5a       	subi	r24, 0xA0	; 160
     234:	9f 4f       	sbci	r25, 0xFF	; 255
     236:	0e 94 55 03 	call	0x6aa	; 0x6aa <LED_enuTurnON>
	TIMER0_enuDelayMilliSecondSyn(3500);
     23a:	6c ea       	ldi	r22, 0xAC	; 172
     23c:	7d e0       	ldi	r23, 0x0D	; 13
     23e:	80 e0       	ldi	r24, 0x00	; 0
     240:	90 e0       	ldi	r25, 0x00	; 0
     242:	0e 94 ff 05 	call	0xbfe	; 0xbfe <TIMER0_enuDelayMilliSecondSyn>
     246:	08 95       	ret

00000248 <GO>:
}
void GO(void)
{
	LCD_vidClearScreen();
     248:	0e 94 e6 02 	call	0x5cc	; 0x5cc <LCD_vidClearScreen>
	LCD_enuWriteString((u8 *)"     $$GO$$     ");
     24c:	83 ea       	ldi	r24, 0xA3	; 163
     24e:	90 e0       	ldi	r25, 0x00	; 0
     250:	0e 94 f3 02 	call	0x5e6	; 0x5e6 <LCD_enuWriteString>
	LED_enuTurnOFF(&LED_AstrLedConfig[curr_car]);
     254:	80 91 d2 00 	lds	r24, 0x00D2	; 0x8000d2 <curr_car>
     258:	90 e0       	ldi	r25, 0x00	; 0
     25a:	88 0f       	add	r24, r24
     25c:	99 1f       	adc	r25, r25
     25e:	88 0f       	add	r24, r24
     260:	99 1f       	adc	r25, r25
     262:	80 5a       	subi	r24, 0xA0	; 160
     264:	9f 4f       	sbci	r25, 0xFF	; 255
     266:	0e 94 76 03 	call	0x6ec	; 0x6ec <LED_enuTurnOFF>
	LED_enuTurnOFF(&LED_AstrLedConfig[curr_pedestrain]);
     26a:	80 91 d6 00 	lds	r24, 0x00D6	; 0x8000d6 <curr_pedestrain>
     26e:	90 e0       	ldi	r25, 0x00	; 0
     270:	88 0f       	add	r24, r24
     272:	99 1f       	adc	r25, r25
     274:	88 0f       	add	r24, r24
     276:	99 1f       	adc	r25, r25
     278:	80 5a       	subi	r24, 0xA0	; 160
     27a:	9f 4f       	sbci	r25, 0xFF	; 255
     27c:	0e 94 76 03 	call	0x6ec	; 0x6ec <LED_enuTurnOFF>
	curr_car = CAR_RED;
     280:	10 92 d2 00 	sts	0x00D2, r1	; 0x8000d2 <curr_car>
	curr_pedestrain = PEDESTRAIN_GREEN;
     284:	85 e0       	ldi	r24, 0x05	; 5
     286:	80 93 d6 00 	sts	0x00D6, r24	; 0x8000d6 <curr_pedestrain>
	LED_enuTurnON(&LED_AstrLedConfig[curr_car]);
     28a:	80 e6       	ldi	r24, 0x60	; 96
     28c:	90 e0       	ldi	r25, 0x00	; 0
     28e:	0e 94 55 03 	call	0x6aa	; 0x6aa <LED_enuTurnON>
	LED_enuTurnON(&LED_AstrLedConfig[curr_pedestrain]);
     292:	80 91 d6 00 	lds	r24, 0x00D6	; 0x8000d6 <curr_pedestrain>
     296:	90 e0       	ldi	r25, 0x00	; 0
     298:	88 0f       	add	r24, r24
     29a:	99 1f       	adc	r25, r25
     29c:	88 0f       	add	r24, r24
     29e:	99 1f       	adc	r25, r25
     2a0:	80 5a       	subi	r24, 0xA0	; 160
     2a2:	9f 4f       	sbci	r25, 0xFF	; 255
     2a4:	0e 94 55 03 	call	0x6aa	; 0x6aa <LED_enuTurnON>
	TIMER0_enuDelayMilliSecondSyn(3500);
     2a8:	6c ea       	ldi	r22, 0xAC	; 172
     2aa:	7d e0       	ldi	r23, 0x0D	; 13
     2ac:	80 e0       	ldi	r24, 0x00	; 0
     2ae:	90 e0       	ldi	r25, 0x00	; 0
     2b0:	0e 94 ff 05 	call	0xbfe	; 0xbfe <TIMER0_enuDelayMilliSecondSyn>
     2b4:	08 95       	ret

000002b6 <Run_Pedestrain_Mode>:
	LED_enuTurnOFF(&LED_AstrLedConfig[curr_pedestrain]);
}

void Run_Pedestrain_Mode(void)
{
	GIE_enuGloable_Interrupt_Disable();
     2b6:	0e 94 da 05 	call	0xbb4	; 0xbb4 <GIE_enuGloable_Interrupt_Disable>
	
	switch(curr_car)
     2ba:	80 91 d2 00 	lds	r24, 0x00D2	; 0x8000d2 <curr_car>
     2be:	88 23       	and	r24, r24
     2c0:	19 f0       	breq	.+6      	; 0x2c8 <Run_Pedestrain_Mode+0x12>
     2c2:	83 30       	cpi	r24, 0x03	; 3
     2c4:	50 f4       	brcc	.+20     	; 0x2da <Run_Pedestrain_Mode+0x24>
     2c6:	03 c0       	rjmp	.+6      	; 0x2ce <Run_Pedestrain_Mode+0x18>
	{
		case CAR_RED:
		GO();
     2c8:	0e 94 24 01 	call	0x248	; 0x248 <GO>
		break;
     2cc:	06 c0       	rjmp	.+12     	; 0x2da <Run_Pedestrain_Mode+0x24>
		
		case CAR_GREEN:
		case CAR_YELLOW:
		STOP();
     2ce:	0e 94 d8 00 	call	0x1b0	; 0x1b0 <STOP>
		READY();
     2d2:	0e 94 ec 00 	call	0x1d8	; 0x1d8 <READY>
		GO();
     2d6:	0e 94 24 01 	call	0x248	; 0x248 <GO>
		break;
	}
	
	state = Normal_Mode;
     2da:	10 92 d5 00 	sts	0x00D5, r1	; 0x8000d5 <state>
	prev_car = CAR_RED;
     2de:	10 92 d3 00 	sts	0x00D3, r1	; 0x8000d3 <prev_car>
	curr_car = CAR_YELLOW;
     2e2:	81 e0       	ldi	r24, 0x01	; 1
     2e4:	80 93 d2 00 	sts	0x00D2, r24	; 0x8000d2 <curr_car>
	flag = 1;
     2e8:	80 93 d4 00 	sts	0x00D4, r24	; 0x8000d4 <flag>
	
	GIE_enuGloable_Interrupt_Enable();
     2ec:	0e 94 d2 05 	call	0xba4	; 0xba4 <GIE_enuGloable_Interrupt_Enable>
     2f0:	08 95       	ret

000002f2 <TRAFFIC_CONTROL_enuRunSystem>:

ES_t TRAFFIC_CONTROL_enuRunSystem(void)
{
	ES_t Local_enuErrorState = ES_NOK;
	
	switch(state)
     2f2:	80 91 d5 00 	lds	r24, 0x00D5	; 0x8000d5 <state>
     2f6:	88 23       	and	r24, r24
     2f8:	19 f0       	breq	.+6      	; 0x300 <TRAFFIC_CONTROL_enuRunSystem+0xe>
     2fa:	81 30       	cpi	r24, 0x01	; 1
     2fc:	21 f0       	breq	.+8      	; 0x306 <TRAFFIC_CONTROL_enuRunSystem+0x14>
     2fe:	05 c0       	rjmp	.+10     	; 0x30a <TRAFFIC_CONTROL_enuRunSystem+0x18>
	{
		case Normal_Mode:
		Run_Normal_Mode();
     300:	0e 94 b1 00 	call	0x162	; 0x162 <Run_Normal_Mode>
		break;
     304:	02 c0       	rjmp	.+4      	; 0x30a <TRAFFIC_CONTROL_enuRunSystem+0x18>
		
		case Pedestrain_Mode:
		Run_Pedestrain_Mode();
     306:	0e 94 5b 01 	call	0x2b6	; 0x2b6 <Run_Pedestrain_Mode>
		break;
	}
	
	return Local_enuErrorState;
}
     30a:	81 e0       	ldi	r24, 0x01	; 1
     30c:	08 95       	ret

0000030e <LCD_vidTrigger_LATCH>:
	if(Local_enuErrorState != ES_OK)
		return Local_enuErrorState;
	
	Local_enuErrorState = ES_OK;
	return Local_enuErrorState;
}
     30e:	40 e0       	ldi	r20, 0x00	; 0
     310:	62 e0       	ldi	r22, 0x02	; 2
     312:	80 e0       	ldi	r24, 0x00	; 0
     314:	0e 94 0e 04 	call	0x81c	; 0x81c <DIO_enuSetPinVal>
     318:	83 ec       	ldi	r24, 0xC3	; 195
     31a:	99 e0       	ldi	r25, 0x09	; 9
     31c:	01 97       	sbiw	r24, 0x01	; 1
     31e:	f1 f7       	brne	.-4      	; 0x31c <LCD_vidTrigger_LATCH+0xe>
     320:	00 c0       	rjmp	.+0      	; 0x322 <LCD_vidTrigger_LATCH+0x14>
     322:	00 00       	nop
     324:	41 e0       	ldi	r20, 0x01	; 1
     326:	62 e0       	ldi	r22, 0x02	; 2
     328:	80 e0       	ldi	r24, 0x00	; 0
     32a:	0e 94 0e 04 	call	0x81c	; 0x81c <DIO_enuSetPinVal>
     32e:	08 95       	ret

00000330 <LCD_enuLatch>:
     330:	cf 93       	push	r28
     332:	df 93       	push	r29
     334:	c8 2f       	mov	r28, r24
     336:	40 e0       	ldi	r20, 0x00	; 0
     338:	61 e0       	ldi	r22, 0x01	; 1
     33a:	80 e0       	ldi	r24, 0x00	; 0
     33c:	0e 94 0e 04 	call	0x81c	; 0x81c <DIO_enuSetPinVal>
     340:	81 11       	cpse	r24, r1
     342:	67 c0       	rjmp	.+206    	; 0x412 <__EEPROM_REGION_LENGTH__+0x12>
     344:	41 e0       	ldi	r20, 0x01	; 1
     346:	62 e0       	ldi	r22, 0x02	; 2
     348:	0e 94 0e 04 	call	0x81c	; 0x81c <DIO_enuSetPinVal>
     34c:	81 11       	cpse	r24, r1
     34e:	61 c0       	rjmp	.+194    	; 0x412 <__EEPROM_REGION_LENGTH__+0x12>
     350:	dc 2f       	mov	r29, r28
     352:	d0 7f       	andi	r29, 0xF0	; 240
     354:	4d 2f       	mov	r20, r29
     356:	44 1f       	adc	r20, r20
     358:	44 27       	eor	r20, r20
     35a:	44 1f       	adc	r20, r20
     35c:	67 e0       	ldi	r22, 0x07	; 7
     35e:	0e 94 0e 04 	call	0x81c	; 0x81c <DIO_enuSetPinVal>
     362:	81 11       	cpse	r24, r1
     364:	56 c0       	rjmp	.+172    	; 0x412 <__EEPROM_REGION_LENGTH__+0x12>
     366:	d6 fb       	bst	r29, 6
     368:	44 27       	eor	r20, r20
     36a:	40 f9       	bld	r20, 0
     36c:	66 e0       	ldi	r22, 0x06	; 6
     36e:	0e 94 0e 04 	call	0x81c	; 0x81c <DIO_enuSetPinVal>
     372:	81 11       	cpse	r24, r1
     374:	4e c0       	rjmp	.+156    	; 0x412 <__EEPROM_REGION_LENGTH__+0x12>
     376:	d5 fb       	bst	r29, 5
     378:	44 27       	eor	r20, r20
     37a:	40 f9       	bld	r20, 0
     37c:	65 e0       	ldi	r22, 0x05	; 5
     37e:	0e 94 0e 04 	call	0x81c	; 0x81c <DIO_enuSetPinVal>
     382:	81 11       	cpse	r24, r1
     384:	46 c0       	rjmp	.+140    	; 0x412 <__EEPROM_REGION_LENGTH__+0x12>
     386:	d4 fb       	bst	r29, 4
     388:	44 27       	eor	r20, r20
     38a:	40 f9       	bld	r20, 0
     38c:	64 e0       	ldi	r22, 0x04	; 4
     38e:	0e 94 0e 04 	call	0x81c	; 0x81c <DIO_enuSetPinVal>
     392:	81 11       	cpse	r24, r1
     394:	3e c0       	rjmp	.+124    	; 0x412 <__EEPROM_REGION_LENGTH__+0x12>
     396:	0e 94 87 01 	call	0x30e	; 0x30e <LCD_vidTrigger_LATCH>
     39a:	89 ef       	ldi	r24, 0xF9	; 249
     39c:	90 e0       	ldi	r25, 0x00	; 0
     39e:	01 97       	sbiw	r24, 0x01	; 1
     3a0:	f1 f7       	brne	.-4      	; 0x39e <LCD_enuLatch+0x6e>
     3a2:	00 c0       	rjmp	.+0      	; 0x3a4 <LCD_enuLatch+0x74>
     3a4:	00 00       	nop
     3a6:	c2 95       	swap	r28
     3a8:	c0 7f       	andi	r28, 0xF0	; 240
     3aa:	4c 2f       	mov	r20, r28
     3ac:	44 1f       	adc	r20, r20
     3ae:	44 27       	eor	r20, r20
     3b0:	44 1f       	adc	r20, r20
     3b2:	67 e0       	ldi	r22, 0x07	; 7
     3b4:	80 e0       	ldi	r24, 0x00	; 0
     3b6:	0e 94 0e 04 	call	0x81c	; 0x81c <DIO_enuSetPinVal>
     3ba:	81 11       	cpse	r24, r1
     3bc:	2a c0       	rjmp	.+84     	; 0x412 <__EEPROM_REGION_LENGTH__+0x12>
     3be:	c6 fb       	bst	r28, 6
     3c0:	44 27       	eor	r20, r20
     3c2:	40 f9       	bld	r20, 0
     3c4:	66 e0       	ldi	r22, 0x06	; 6
     3c6:	0e 94 0e 04 	call	0x81c	; 0x81c <DIO_enuSetPinVal>
     3ca:	81 11       	cpse	r24, r1
     3cc:	22 c0       	rjmp	.+68     	; 0x412 <__EEPROM_REGION_LENGTH__+0x12>
     3ce:	c5 fb       	bst	r28, 5
     3d0:	44 27       	eor	r20, r20
     3d2:	40 f9       	bld	r20, 0
     3d4:	65 e0       	ldi	r22, 0x05	; 5
     3d6:	0e 94 0e 04 	call	0x81c	; 0x81c <DIO_enuSetPinVal>
     3da:	81 11       	cpse	r24, r1
     3dc:	1a c0       	rjmp	.+52     	; 0x412 <__EEPROM_REGION_LENGTH__+0x12>
     3de:	c4 fb       	bst	r28, 4
     3e0:	44 27       	eor	r20, r20
     3e2:	40 f9       	bld	r20, 0
     3e4:	64 e0       	ldi	r22, 0x04	; 4
     3e6:	0e 94 0e 04 	call	0x81c	; 0x81c <DIO_enuSetPinVal>
     3ea:	81 11       	cpse	r24, r1
     3ec:	12 c0       	rjmp	.+36     	; 0x412 <__EEPROM_REGION_LENGTH__+0x12>
     3ee:	89 ef       	ldi	r24, 0xF9	; 249
     3f0:	90 e0       	ldi	r25, 0x00	; 0
     3f2:	01 97       	sbiw	r24, 0x01	; 1
     3f4:	f1 f7       	brne	.-4      	; 0x3f2 <LCD_enuLatch+0xc2>
     3f6:	00 c0       	rjmp	.+0      	; 0x3f8 <LCD_enuLatch+0xc8>
     3f8:	00 00       	nop
     3fa:	40 e0       	ldi	r20, 0x00	; 0
     3fc:	62 e0       	ldi	r22, 0x02	; 2
     3fe:	80 e0       	ldi	r24, 0x00	; 0
     400:	0e 94 0e 04 	call	0x81c	; 0x81c <DIO_enuSetPinVal>
     404:	89 ef       	ldi	r24, 0xF9	; 249
     406:	90 e0       	ldi	r25, 0x00	; 0
     408:	01 97       	sbiw	r24, 0x01	; 1
     40a:	f1 f7       	brne	.-4      	; 0x408 <__EEPROM_REGION_LENGTH__+0x8>
     40c:	00 c0       	rjmp	.+0      	; 0x40e <__EEPROM_REGION_LENGTH__+0xe>
     40e:	00 00       	nop
     410:	80 e0       	ldi	r24, 0x00	; 0
     412:	df 91       	pop	r29
     414:	cf 91       	pop	r28
     416:	08 95       	ret

00000418 <LCD_inlenuSendCommand>:
     418:	cf 93       	push	r28
     41a:	c8 2f       	mov	r28, r24
     41c:	40 e0       	ldi	r20, 0x00	; 0
     41e:	60 e0       	ldi	r22, 0x00	; 0
     420:	80 e0       	ldi	r24, 0x00	; 0
     422:	0e 94 0e 04 	call	0x81c	; 0x81c <DIO_enuSetPinVal>
     426:	81 11       	cpse	r24, r1
     428:	03 c0       	rjmp	.+6      	; 0x430 <LCD_inlenuSendCommand+0x18>
     42a:	8c 2f       	mov	r24, r28
     42c:	0e 94 98 01 	call	0x330	; 0x330 <LCD_enuLatch>
     430:	cf 91       	pop	r28
     432:	08 95       	ret

00000434 <LCD_enuInit>:
     434:	41 e0       	ldi	r20, 0x01	; 1
     436:	60 e0       	ldi	r22, 0x00	; 0
     438:	80 e0       	ldi	r24, 0x00	; 0
     43a:	0e 94 9c 03 	call	0x738	; 0x738 <DIO_enuSetPinDirection>
     43e:	81 11       	cpse	r24, r1
     440:	5d c0       	rjmp	.+186    	; 0x4fc <LCD_enuInit+0xc8>
     442:	41 e0       	ldi	r20, 0x01	; 1
     444:	61 e0       	ldi	r22, 0x01	; 1
     446:	0e 94 9c 03 	call	0x738	; 0x738 <DIO_enuSetPinDirection>
     44a:	81 11       	cpse	r24, r1
     44c:	57 c0       	rjmp	.+174    	; 0x4fc <LCD_enuInit+0xc8>
     44e:	41 e0       	ldi	r20, 0x01	; 1
     450:	62 e0       	ldi	r22, 0x02	; 2
     452:	0e 94 9c 03 	call	0x738	; 0x738 <DIO_enuSetPinDirection>
     456:	81 11       	cpse	r24, r1
     458:	51 c0       	rjmp	.+162    	; 0x4fc <LCD_enuInit+0xc8>
     45a:	41 e0       	ldi	r20, 0x01	; 1
     45c:	67 e0       	ldi	r22, 0x07	; 7
     45e:	0e 94 9c 03 	call	0x738	; 0x738 <DIO_enuSetPinDirection>
     462:	81 11       	cpse	r24, r1
     464:	4b c0       	rjmp	.+150    	; 0x4fc <LCD_enuInit+0xc8>
     466:	41 e0       	ldi	r20, 0x01	; 1
     468:	66 e0       	ldi	r22, 0x06	; 6
     46a:	0e 94 9c 03 	call	0x738	; 0x738 <DIO_enuSetPinDirection>
     46e:	81 11       	cpse	r24, r1
     470:	45 c0       	rjmp	.+138    	; 0x4fc <LCD_enuInit+0xc8>
     472:	41 e0       	ldi	r20, 0x01	; 1
     474:	65 e0       	ldi	r22, 0x05	; 5
     476:	0e 94 9c 03 	call	0x738	; 0x738 <DIO_enuSetPinDirection>
     47a:	81 11       	cpse	r24, r1
     47c:	3f c0       	rjmp	.+126    	; 0x4fc <LCD_enuInit+0xc8>
     47e:	41 e0       	ldi	r20, 0x01	; 1
     480:	64 e0       	ldi	r22, 0x04	; 4
     482:	0e 94 9c 03 	call	0x738	; 0x738 <DIO_enuSetPinDirection>
     486:	81 11       	cpse	r24, r1
     488:	39 c0       	rjmp	.+114    	; 0x4fc <LCD_enuInit+0xc8>
     48a:	8d e2       	ldi	r24, 0x2D	; 45
     48c:	92 e2       	ldi	r25, 0x22	; 34
     48e:	01 97       	sbiw	r24, 0x01	; 1
     490:	f1 f7       	brne	.-4      	; 0x48e <LCD_enuInit+0x5a>
     492:	00 c0       	rjmp	.+0      	; 0x494 <LCD_enuInit+0x60>
     494:	00 00       	nop
     496:	83 e3       	ldi	r24, 0x33	; 51
     498:	0e 94 0c 02 	call	0x418	; 0x418 <LCD_inlenuSendCommand>
     49c:	82 e3       	ldi	r24, 0x32	; 50
     49e:	0e 94 0c 02 	call	0x418	; 0x418 <LCD_inlenuSendCommand>
     4a2:	88 e2       	ldi	r24, 0x28	; 40
     4a4:	0e 94 0c 02 	call	0x418	; 0x418 <LCD_inlenuSendCommand>
     4a8:	81 11       	cpse	r24, r1
     4aa:	28 c0       	rjmp	.+80     	; 0x4fc <LCD_enuInit+0xc8>
     4ac:	89 ef       	ldi	r24, 0xF9	; 249
     4ae:	90 e0       	ldi	r25, 0x00	; 0
     4b0:	01 97       	sbiw	r24, 0x01	; 1
     4b2:	f1 f7       	brne	.-4      	; 0x4b0 <LCD_enuInit+0x7c>
     4b4:	00 c0       	rjmp	.+0      	; 0x4b6 <LCD_enuInit+0x82>
     4b6:	00 00       	nop
     4b8:	8f e0       	ldi	r24, 0x0F	; 15
     4ba:	0e 94 0c 02 	call	0x418	; 0x418 <LCD_inlenuSendCommand>
     4be:	81 11       	cpse	r24, r1
     4c0:	1d c0       	rjmp	.+58     	; 0x4fc <LCD_enuInit+0xc8>
     4c2:	89 ef       	ldi	r24, 0xF9	; 249
     4c4:	90 e0       	ldi	r25, 0x00	; 0
     4c6:	01 97       	sbiw	r24, 0x01	; 1
     4c8:	f1 f7       	brne	.-4      	; 0x4c6 <LCD_enuInit+0x92>
     4ca:	00 c0       	rjmp	.+0      	; 0x4cc <LCD_enuInit+0x98>
     4cc:	00 00       	nop
     4ce:	81 e0       	ldi	r24, 0x01	; 1
     4d0:	0e 94 0c 02 	call	0x418	; 0x418 <LCD_inlenuSendCommand>
     4d4:	81 11       	cpse	r24, r1
     4d6:	12 c0       	rjmp	.+36     	; 0x4fc <LCD_enuInit+0xc8>
     4d8:	83 ef       	ldi	r24, 0xF3	; 243
     4da:	91 e0       	ldi	r25, 0x01	; 1
     4dc:	01 97       	sbiw	r24, 0x01	; 1
     4de:	f1 f7       	brne	.-4      	; 0x4dc <LCD_enuInit+0xa8>
     4e0:	00 c0       	rjmp	.+0      	; 0x4e2 <LCD_enuInit+0xae>
     4e2:	00 00       	nop
     4e4:	86 e0       	ldi	r24, 0x06	; 6
     4e6:	0e 94 0c 02 	call	0x418	; 0x418 <LCD_inlenuSendCommand>
     4ea:	81 11       	cpse	r24, r1
     4ec:	07 c0       	rjmp	.+14     	; 0x4fc <LCD_enuInit+0xc8>
     4ee:	89 ef       	ldi	r24, 0xF9	; 249
     4f0:	90 e0       	ldi	r25, 0x00	; 0
     4f2:	01 97       	sbiw	r24, 0x01	; 1
     4f4:	f1 f7       	brne	.-4      	; 0x4f2 <LCD_enuInit+0xbe>
     4f6:	00 c0       	rjmp	.+0      	; 0x4f8 <LCD_enuInit+0xc4>
     4f8:	00 00       	nop
     4fa:	80 e0       	ldi	r24, 0x00	; 0
     4fc:	08 95       	ret

000004fe <LCD_enuGoToPosition>:
 * @retval		: ES_t --> it returns the state of excution of this function
 * @note		: none
 ******************************************************************************
**/
ES_t LCD_enuGoToPosition(u8 Copy_u8Line, u8 Copy_u8Position)
{
     4fe:	cf 93       	push	r28
     500:	df 93       	push	r29
	ES_t Local_enuErrorState = ES_NOK;
	
	if(Copy_u8Position >= 0 && Copy_u8Position < 16)
     502:	60 31       	cpi	r22, 0x10	; 16
     504:	40 f5       	brcc	.+80     	; 0x556 <LCD_enuGoToPosition+0x58>
     506:	c6 2f       	mov	r28, r22
	{
		if(Copy_u8Line == LCD_FIRST_LINE)
     508:	81 11       	cpse	r24, r1
     50a:	10 c0       	rjmp	.+32     	; 0x52c <LCD_enuGoToPosition+0x2e>
		{
			Local_enuErrorState = LCD_inlenuSendCommand(LCD_BEGIN_AT_FIRST_ROW + Copy_u8Position);
     50c:	d0 e8       	ldi	r29, 0x80	; 128
     50e:	d6 0f       	add	r29, r22
static inline ES_t LCD_inlenuSendCommand(u8 Copy_u8Command)
{
	ES_t Local_enuErrorState = ES_NOK;
		
	/* RS --> LOW to write Command */
	Local_enuErrorState = DIO_enuSetPinVal(RS_PORT, RS_PIN, DIO_u8LOW);
     510:	40 e0       	ldi	r20, 0x00	; 0
     512:	60 e0       	ldi	r22, 0x00	; 0
     514:	0e 94 0e 04 	call	0x81c	; 0x81c <DIO_enuSetPinVal>
	if(Local_enuErrorState != ES_OK)
     518:	81 11       	cpse	r24, r1
     51a:	03 c0       	rjmp	.+6      	; 0x522 <LCD_enuGoToPosition+0x24>
		return Local_enuErrorState;	

	/* Call Latch Function */
	Local_enuErrorState = LCD_enuLatch(Copy_u8Command);
     51c:	8d 2f       	mov	r24, r29
     51e:	0e 94 98 01 	call	0x330	; 0x330 <LCD_enuLatch>
	if(Copy_u8Position >= 0 && Copy_u8Position < 16)
	{
		if(Copy_u8Line == LCD_FIRST_LINE)
		{
			Local_enuErrorState = LCD_inlenuSendCommand(LCD_BEGIN_AT_FIRST_ROW + Copy_u8Position);
			if(Local_enuErrorState != ES_OK)
     522:	81 11       	cpse	r24, r1
     524:	1b c0       	rjmp	.+54     	; 0x55c <LCD_enuGoToPosition+0x5e>
				return Local_enuErrorState;
				
			LCD_u8PosCounter = Copy_u8Position;
     526:	c0 93 b4 00 	sts	0x00B4, r28	; 0x8000b4 <__data_end>
     52a:	18 c0       	rjmp	.+48     	; 0x55c <LCD_enuGoToPosition+0x5e>
		}
		else if(Copy_u8Line == LCD_SECOND_LINE)
     52c:	81 30       	cpi	r24, 0x01	; 1
     52e:	a9 f4       	brne	.+42     	; 0x55a <LCD_enuGoToPosition+0x5c>
		{
			Local_enuErrorState = LCD_inlenuSendCommand(LCD_BEGIN_AT_SECOND_ROW + Copy_u8Position);
     530:	d0 ec       	ldi	r29, 0xC0	; 192
     532:	d6 0f       	add	r29, r22
static inline ES_t LCD_inlenuSendCommand(u8 Copy_u8Command)
{
	ES_t Local_enuErrorState = ES_NOK;
		
	/* RS --> LOW to write Command */
	Local_enuErrorState = DIO_enuSetPinVal(RS_PORT, RS_PIN, DIO_u8LOW);
     534:	40 e0       	ldi	r20, 0x00	; 0
     536:	60 e0       	ldi	r22, 0x00	; 0
     538:	80 e0       	ldi	r24, 0x00	; 0
     53a:	0e 94 0e 04 	call	0x81c	; 0x81c <DIO_enuSetPinVal>
	if(Local_enuErrorState != ES_OK)
     53e:	81 11       	cpse	r24, r1
     540:	03 c0       	rjmp	.+6      	; 0x548 <LCD_enuGoToPosition+0x4a>
		return Local_enuErrorState;	

	/* Call Latch Function */
	Local_enuErrorState = LCD_enuLatch(Copy_u8Command);
     542:	8d 2f       	mov	r24, r29
     544:	0e 94 98 01 	call	0x330	; 0x330 <LCD_enuLatch>
			LCD_u8PosCounter = Copy_u8Position;
		}
		else if(Copy_u8Line == LCD_SECOND_LINE)
		{
			Local_enuErrorState = LCD_inlenuSendCommand(LCD_BEGIN_AT_SECOND_ROW + Copy_u8Position);
			if(Local_enuErrorState != ES_OK)
     548:	81 11       	cpse	r24, r1
     54a:	08 c0       	rjmp	.+16     	; 0x55c <LCD_enuGoToPosition+0x5e>
				return Local_enuErrorState;
				
			LCD_u8PosCounter = Copy_u8Position + 16;
     54c:	60 e1       	ldi	r22, 0x10	; 16
     54e:	6c 0f       	add	r22, r28
     550:	60 93 b4 00 	sts	0x00B4, r22	; 0x8000b4 <__data_end>
     554:	03 c0       	rjmp	.+6      	; 0x55c <LCD_enuGoToPosition+0x5e>
		}
	}
	
	Local_enuErrorState = ES_OK;
	return Local_enuErrorState;
     556:	80 e0       	ldi	r24, 0x00	; 0
     558:	01 c0       	rjmp	.+2      	; 0x55c <LCD_enuGoToPosition+0x5e>
     55a:	80 e0       	ldi	r24, 0x00	; 0
}
     55c:	df 91       	pop	r29
     55e:	cf 91       	pop	r28
     560:	08 95       	ret

00000562 <LCD_vidCheckPosition>:
 * @note		: none
 ******************************************************************************
**/
static void LCD_vidCheckPosition(void)
{
	if(LCD_u8PosCounter == 16)
     562:	80 91 b4 00 	lds	r24, 0x00B4	; 0x8000b4 <__data_end>
     566:	80 31       	cpi	r24, 0x10	; 16
     568:	51 f4       	brne	.+20     	; 0x57e <LCD_vidCheckPosition+0x1c>
	{
		LCD_enuGoToPosition(LCD_SECOND_LINE, 0);
     56a:	60 e0       	ldi	r22, 0x00	; 0
     56c:	81 e0       	ldi	r24, 0x01	; 1
     56e:	0e 94 7f 02 	call	0x4fe	; 0x4fe <LCD_enuGoToPosition>
		LCD_u8PosCounter++;
     572:	80 91 b4 00 	lds	r24, 0x00B4	; 0x8000b4 <__data_end>
     576:	8f 5f       	subi	r24, 0xFF	; 255
     578:	80 93 b4 00 	sts	0x00B4, r24	; 0x8000b4 <__data_end>
     57c:	08 95       	ret
	}
	else if(LCD_u8PosCounter == 32)
     57e:	80 32       	cpi	r24, 0x20	; 32
     580:	89 f4       	brne	.+34     	; 0x5a4 <LCD_vidCheckPosition+0x42>
static inline ES_t LCD_inlenuSendCommand(u8 Copy_u8Command)
{
	ES_t Local_enuErrorState = ES_NOK;
		
	/* RS --> LOW to write Command */
	Local_enuErrorState = DIO_enuSetPinVal(RS_PORT, RS_PIN, DIO_u8LOW);
     582:	40 e0       	ldi	r20, 0x00	; 0
     584:	60 e0       	ldi	r22, 0x00	; 0
     586:	80 e0       	ldi	r24, 0x00	; 0
     588:	0e 94 0e 04 	call	0x81c	; 0x81c <DIO_enuSetPinVal>
	if(Local_enuErrorState != ES_OK)
     58c:	81 11       	cpse	r24, r1
     58e:	03 c0       	rjmp	.+6      	; 0x596 <LCD_vidCheckPosition+0x34>
		return Local_enuErrorState;	

	/* Call Latch Function */
	Local_enuErrorState = LCD_enuLatch(Copy_u8Command);
     590:	81 e0       	ldi	r24, 0x01	; 1
     592:	0e 94 98 01 	call	0x330	; 0x330 <LCD_enuLatch>
		LCD_u8PosCounter++;
	}
	else if(LCD_u8PosCounter == 32)
	{
		LCD_inlenuSendCommand(LCD_Clear_Display);
		LCD_enuGoToPosition(LCD_FIRST_LINE, 0);
     596:	60 e0       	ldi	r22, 0x00	; 0
     598:	80 e0       	ldi	r24, 0x00	; 0
     59a:	0e 94 7f 02 	call	0x4fe	; 0x4fe <LCD_enuGoToPosition>
		LCD_u8PosCounter = 0;
     59e:	10 92 b4 00 	sts	0x00B4, r1	; 0x8000b4 <__data_end>
     5a2:	08 95       	ret
	}
	else
	{
		LCD_u8PosCounter++;
     5a4:	8f 5f       	subi	r24, 0xFF	; 255
     5a6:	80 93 b4 00 	sts	0x00B4, r24	; 0x8000b4 <__data_end>
     5aa:	08 95       	ret

000005ac <LCD_enuDisplayChar>:
 * @retval		: ES_t --> it returns the state of excution of this function
 * @note		: none
 ******************************************************************************
**/
ES_t LCD_enuDisplayChar(u8 Copy_u8Data)
{
     5ac:	cf 93       	push	r28
     5ae:	c8 2f       	mov	r28, r24
	ES_t Local_enuErrorState = ES_NOK;
	
	/* Check position in case of we send data */
	LCD_vidCheckPosition();
     5b0:	0e 94 b1 02 	call	0x562	; 0x562 <LCD_vidCheckPosition>
	
	/* RS --> High to write Data */
	Local_enuErrorState = DIO_enuSetPinVal(RS_PORT, RS_PIN, DIO_u8HIGH);
     5b4:	41 e0       	ldi	r20, 0x01	; 1
     5b6:	60 e0       	ldi	r22, 0x00	; 0
     5b8:	80 e0       	ldi	r24, 0x00	; 0
     5ba:	0e 94 0e 04 	call	0x81c	; 0x81c <DIO_enuSetPinVal>
	if(Local_enuErrorState != ES_OK)
     5be:	81 11       	cpse	r24, r1
     5c0:	03 c0       	rjmp	.+6      	; 0x5c8 <LCD_enuDisplayChar+0x1c>
		return Local_enuErrorState;
	
	/* Call Latch Function */
	Local_enuErrorState = LCD_enuLatch(Copy_u8Data);
     5c2:	8c 2f       	mov	r24, r28
     5c4:	0e 94 98 01 	call	0x330	; 0x330 <LCD_enuLatch>
	if(Local_enuErrorState != ES_OK)
		return Local_enuErrorState;
	
	Local_enuErrorState = ES_OK;
	return Local_enuErrorState;
}
     5c8:	cf 91       	pop	r28
     5ca:	08 95       	ret

000005cc <LCD_vidClearScreen>:
static inline ES_t LCD_inlenuSendCommand(u8 Copy_u8Command)
{
	ES_t Local_enuErrorState = ES_NOK;
		
	/* RS --> LOW to write Command */
	Local_enuErrorState = DIO_enuSetPinVal(RS_PORT, RS_PIN, DIO_u8LOW);
     5cc:	40 e0       	ldi	r20, 0x00	; 0
     5ce:	60 e0       	ldi	r22, 0x00	; 0
     5d0:	80 e0       	ldi	r24, 0x00	; 0
     5d2:	0e 94 0e 04 	call	0x81c	; 0x81c <DIO_enuSetPinVal>
	if(Local_enuErrorState != ES_OK)
     5d6:	81 11       	cpse	r24, r1
     5d8:	03 c0       	rjmp	.+6      	; 0x5e0 <LCD_vidClearScreen+0x14>
		return Local_enuErrorState;	

	/* Call Latch Function */
	Local_enuErrorState = LCD_enuLatch(Copy_u8Command);
     5da:	81 e0       	ldi	r24, 0x01	; 1
     5dc:	0e 94 98 01 	call	0x330	; 0x330 <LCD_enuLatch>
 ******************************************************************************
**/
void LCD_vidClearScreen(void)
{
	LCD_inlenuSendCommand(LCD_Clear_Display);
	LCD_u8PosCounter = 0;
     5e0:	10 92 b4 00 	sts	0x00B4, r1	; 0x8000b4 <__data_end>
     5e4:	08 95       	ret

000005e6 <LCD_enuWriteString>:
 * @retval		: ES_t --> it returns the state of excution of this function
 * @note		: none
 ******************************************************************************
**/
ES_t LCD_enuWriteString(u8 *Copy_pu8Str)
{
     5e6:	cf 93       	push	r28
     5e8:	df 93       	push	r29
     5ea:	ec 01       	movw	r28, r24
	ES_t Local_enuErrorState = ES_NOK;
	
	if(Copy_pu8Str != NULL)
     5ec:	89 2b       	or	r24, r25
     5ee:	39 f4       	brne	.+14     	; 0x5fe <LCD_enuWriteString+0x18>
		}
		Local_enuErrorState = ES_OK;
	}
	else
	{
		return ES_NULL_POINTER;
     5f0:	82 e0       	ldi	r24, 0x02	; 2
     5f2:	08 c0       	rjmp	.+16     	; 0x604 <LCD_enuWriteString+0x1e>
	
	if(Copy_pu8Str != NULL)
	{
		while(*Copy_pu8Str != '\0')
		{
			Local_enuErrorState = LCD_enuDisplayChar(*Copy_pu8Str);
     5f4:	0e 94 d6 02 	call	0x5ac	; 0x5ac <LCD_enuDisplayChar>
			if(Local_enuErrorState != ES_OK)
     5f8:	81 11       	cpse	r24, r1
     5fa:	04 c0       	rjmp	.+8      	; 0x604 <LCD_enuWriteString+0x1e>
				return Local_enuErrorState;
			Copy_pu8Str++;
     5fc:	21 96       	adiw	r28, 0x01	; 1
{
	ES_t Local_enuErrorState = ES_NOK;
	
	if(Copy_pu8Str != NULL)
	{
		while(*Copy_pu8Str != '\0')
     5fe:	88 81       	ld	r24, Y
     600:	81 11       	cpse	r24, r1
     602:	f8 cf       	rjmp	.-16     	; 0x5f4 <LCD_enuWriteString+0xe>
		return ES_NULL_POINTER;
	}
	
	Local_enuErrorState = ES_OK;
	return Local_enuErrorState;
}
     604:	df 91       	pop	r29
     606:	cf 91       	pop	r28
     608:	08 95       	ret

0000060a <LED_enuINIT>:
#include "LED_priv.h"

#include "../../MCAL/DIO/DIO_int.h"

ES_t LED_enuINIT(LED_t *Copy_pAstrLedConfig)
{
     60a:	ef 92       	push	r14
     60c:	ff 92       	push	r15
     60e:	1f 93       	push	r17
     610:	cf 93       	push	r28
     612:	df 93       	push	r29
	ES_t Local_enuErrorState = ES_NOK;
	
	if(Copy_pAstrLedConfig != NULL)
     614:	00 97       	sbiw	r24, 0x00	; 0
     616:	e9 f5       	brne	.+122    	; 0x692 <LED_enuINIT+0x88>
			}
		}
	}
	else
	{
		Local_enuErrorState = ES_NULL_POINTER;
     618:	82 e0       	ldi	r24, 0x02	; 2
     61a:	41 c0       	rjmp	.+130    	; 0x69e <LED_enuINIT+0x94>
	if(Copy_pAstrLedConfig != NULL)
	{
		u8 Local_u8Iterator;
		for(Local_u8Iterator = 0; Local_u8Iterator < LED_NUM; Local_u8Iterator++)
		{
			DIO_enuSetPinDirection(Copy_pAstrLedConfig[Local_u8Iterator].LED_u8PortID, Copy_pAstrLedConfig[Local_u8Iterator].LED_u8PinID, DIO_u8OUTPUT);
     61c:	c1 2f       	mov	r28, r17
     61e:	d0 e0       	ldi	r29, 0x00	; 0
     620:	cc 0f       	add	r28, r28
     622:	dd 1f       	adc	r29, r29
     624:	cc 0f       	add	r28, r28
     626:	dd 1f       	adc	r29, r29
     628:	ce 0d       	add	r28, r14
     62a:	df 1d       	adc	r29, r15
     62c:	41 e0       	ldi	r20, 0x01	; 1
     62e:	69 81       	ldd	r22, Y+1	; 0x01
     630:	88 81       	ld	r24, Y
     632:	0e 94 9c 03 	call	0x738	; 0x738 <DIO_enuSetPinDirection>
			if(Copy_pAstrLedConfig[Local_u8Iterator].LED_u8Connection == LED_u8SINK)
     636:	9a 81       	ldd	r25, Y+2	; 0x02
     638:	9c 30       	cpi	r25, 0x0C	; 12
     63a:	89 f4       	brne	.+34     	; 0x65e <LED_enuINIT+0x54>
			{
				if(Copy_pAstrLedConfig[Local_u8Iterator].LED_u8InitState == LED_u8ON)
     63c:	8b 81       	ldd	r24, Y+3	; 0x03
     63e:	8a 30       	cpi	r24, 0x0A	; 10
     640:	31 f4       	brne	.+12     	; 0x64e <LED_enuINIT+0x44>
				{
					Local_enuErrorState = DIO_enuSetPinVal(Copy_pAstrLedConfig[Local_u8Iterator].LED_u8PortID, Copy_pAstrLedConfig[Local_u8Iterator].LED_u8PinID, DIO_u8LOW);
     642:	69 81       	ldd	r22, Y+1	; 0x01
     644:	40 e0       	ldi	r20, 0x00	; 0
     646:	88 81       	ld	r24, Y
     648:	0e 94 0e 04 	call	0x81c	; 0x81c <DIO_enuSetPinVal>
     64c:	20 c0       	rjmp	.+64     	; 0x68e <LED_enuINIT+0x84>
				}
				else if(Copy_pAstrLedConfig[Local_u8Iterator].LED_u8InitState == LED_u8OFF)
     64e:	8b 30       	cpi	r24, 0x0B	; 11
     650:	c9 f4       	brne	.+50     	; 0x684 <LED_enuINIT+0x7a>
				{
					Local_enuErrorState = DIO_enuSetPinVal(Copy_pAstrLedConfig[Local_u8Iterator].LED_u8PortID, Copy_pAstrLedConfig[Local_u8Iterator].LED_u8PinID, DIO_u8HIGH);
     652:	69 81       	ldd	r22, Y+1	; 0x01
     654:	41 e0       	ldi	r20, 0x01	; 1
     656:	88 81       	ld	r24, Y
     658:	0e 94 0e 04 	call	0x81c	; 0x81c <DIO_enuSetPinVal>
     65c:	18 c0       	rjmp	.+48     	; 0x68e <LED_enuINIT+0x84>
				else
				{
					Local_enuErrorState = ES_OUT_OF_RANGE;
				}
			}
			else if(Copy_pAstrLedConfig[Local_u8Iterator].LED_u8Connection == LED_u8SOURCE)
     65e:	9d 30       	cpi	r25, 0x0D	; 13
     660:	99 f4       	brne	.+38     	; 0x688 <LED_enuINIT+0x7e>
			{
				if(Copy_pAstrLedConfig[Local_u8Iterator].LED_u8InitState == LED_u8ON)
     662:	8b 81       	ldd	r24, Y+3	; 0x03
     664:	8a 30       	cpi	r24, 0x0A	; 10
     666:	31 f4       	brne	.+12     	; 0x674 <LED_enuINIT+0x6a>
				{
					Local_enuErrorState = DIO_enuSetPinVal(Copy_pAstrLedConfig[Local_u8Iterator].LED_u8PortID, Copy_pAstrLedConfig[Local_u8Iterator].LED_u8PinID, DIO_u8HIGH);
     668:	69 81       	ldd	r22, Y+1	; 0x01
     66a:	41 e0       	ldi	r20, 0x01	; 1
     66c:	88 81       	ld	r24, Y
     66e:	0e 94 0e 04 	call	0x81c	; 0x81c <DIO_enuSetPinVal>
     672:	0d c0       	rjmp	.+26     	; 0x68e <LED_enuINIT+0x84>
				}
				else if(Copy_pAstrLedConfig[Local_u8Iterator].LED_u8InitState == LED_u8OFF)
     674:	8b 30       	cpi	r24, 0x0B	; 11
     676:	51 f4       	brne	.+20     	; 0x68c <LED_enuINIT+0x82>
				{
					Local_enuErrorState = DIO_enuSetPinVal(Copy_pAstrLedConfig[Local_u8Iterator].LED_u8PortID, Copy_pAstrLedConfig[Local_u8Iterator].LED_u8PinID, DIO_u8LOW);
     678:	69 81       	ldd	r22, Y+1	; 0x01
     67a:	40 e0       	ldi	r20, 0x00	; 0
     67c:	88 81       	ld	r24, Y
     67e:	0e 94 0e 04 	call	0x81c	; 0x81c <DIO_enuSetPinVal>
     682:	05 c0       	rjmp	.+10     	; 0x68e <LED_enuINIT+0x84>
				{
					Local_enuErrorState = DIO_enuSetPinVal(Copy_pAstrLedConfig[Local_u8Iterator].LED_u8PortID, Copy_pAstrLedConfig[Local_u8Iterator].LED_u8PinID, DIO_u8HIGH);
				}
				else
				{
					Local_enuErrorState = ES_OUT_OF_RANGE;
     684:	83 e0       	ldi	r24, 0x03	; 3
     686:	03 c0       	rjmp	.+6      	; 0x68e <LED_enuINIT+0x84>
					Local_enuErrorState = ES_OUT_OF_RANGE;
				}
			}
			else
			{
				Local_enuErrorState = ES_OUT_OF_RANGE;
     688:	83 e0       	ldi	r24, 0x03	; 3
     68a:	01 c0       	rjmp	.+2      	; 0x68e <LED_enuINIT+0x84>
				{
					Local_enuErrorState = DIO_enuSetPinVal(Copy_pAstrLedConfig[Local_u8Iterator].LED_u8PortID, Copy_pAstrLedConfig[Local_u8Iterator].LED_u8PinID, DIO_u8LOW);
				}
				else
				{
					Local_enuErrorState = ES_OUT_OF_RANGE;
     68c:	83 e0       	ldi	r24, 0x03	; 3
	ES_t Local_enuErrorState = ES_NOK;
	
	if(Copy_pAstrLedConfig != NULL)
	{
		u8 Local_u8Iterator;
		for(Local_u8Iterator = 0; Local_u8Iterator < LED_NUM; Local_u8Iterator++)
     68e:	1f 5f       	subi	r17, 0xFF	; 255
     690:	03 c0       	rjmp	.+6      	; 0x698 <LED_enuINIT+0x8e>
     692:	7c 01       	movw	r14, r24
     694:	10 e0       	ldi	r17, 0x00	; 0
     696:	81 e0       	ldi	r24, 0x01	; 1
     698:	16 30       	cpi	r17, 0x06	; 6
     69a:	08 f4       	brcc	.+2      	; 0x69e <LED_enuINIT+0x94>
     69c:	bf cf       	rjmp	.-130    	; 0x61c <LED_enuINIT+0x12>
	{
		Local_enuErrorState = ES_NULL_POINTER;
	}
	
	return Local_enuErrorState;
}
     69e:	df 91       	pop	r29
     6a0:	cf 91       	pop	r28
     6a2:	1f 91       	pop	r17
     6a4:	ff 90       	pop	r15
     6a6:	ef 90       	pop	r14
     6a8:	08 95       	ret

000006aa <LED_enuTurnON>:

ES_t LED_enuTurnON(LED_t *Copy_pstrLedID)
{
     6aa:	cf 93       	push	r28
     6ac:	df 93       	push	r29
	ES_t Local_enuErrorState = ES_NOK;
	
	if(Copy_pstrLedID != NULL)
     6ae:	00 97       	sbiw	r24, 0x00	; 0
     6b0:	b9 f0       	breq	.+46     	; 0x6e0 <LED_enuTurnON+0x36>
     6b2:	ec 01       	movw	r28, r24
	{
		DIO_enuSetPinDirection(Copy_pstrLedID->LED_u8PortID, Copy_pstrLedID->LED_u8PinID, DIO_u8OUTPUT);
     6b4:	41 e0       	ldi	r20, 0x01	; 1
     6b6:	69 81       	ldd	r22, Y+1	; 0x01
     6b8:	88 81       	ld	r24, Y
     6ba:	0e 94 9c 03 	call	0x738	; 0x738 <DIO_enuSetPinDirection>
		if(Copy_pstrLedID->LED_u8Connection == LED_u8SINK)
     6be:	8a 81       	ldd	r24, Y+2	; 0x02
     6c0:	8c 30       	cpi	r24, 0x0C	; 12
     6c2:	31 f4       	brne	.+12     	; 0x6d0 <LED_enuTurnON+0x26>
		{
			Local_enuErrorState = DIO_enuSetPinVal(Copy_pstrLedID->LED_u8PortID, Copy_pstrLedID->LED_u8PinID, DIO_u8LOW);
     6c4:	69 81       	ldd	r22, Y+1	; 0x01
     6c6:	40 e0       	ldi	r20, 0x00	; 0
     6c8:	88 81       	ld	r24, Y
     6ca:	0e 94 0e 04 	call	0x81c	; 0x81c <DIO_enuSetPinVal>
     6ce:	0b c0       	rjmp	.+22     	; 0x6e6 <LED_enuTurnON+0x3c>
		}
		else if(Copy_pstrLedID->LED_u8Connection == LED_u8SOURCE)
     6d0:	8d 30       	cpi	r24, 0x0D	; 13
     6d2:	41 f4       	brne	.+16     	; 0x6e4 <LED_enuTurnON+0x3a>
		{
			Local_enuErrorState = DIO_enuSetPinVal(Copy_pstrLedID->LED_u8PortID, Copy_pstrLedID->LED_u8PinID, DIO_u8HIGH);
     6d4:	69 81       	ldd	r22, Y+1	; 0x01
     6d6:	41 e0       	ldi	r20, 0x01	; 1
     6d8:	88 81       	ld	r24, Y
     6da:	0e 94 0e 04 	call	0x81c	; 0x81c <DIO_enuSetPinVal>
     6de:	03 c0       	rjmp	.+6      	; 0x6e6 <LED_enuTurnON+0x3c>
			Local_enuErrorState = ES_OUT_OF_RANGE;
		}
	}
	else
	{
		Local_enuErrorState = ES_NULL_POINTER;
     6e0:	82 e0       	ldi	r24, 0x02	; 2
     6e2:	01 c0       	rjmp	.+2      	; 0x6e6 <LED_enuTurnON+0x3c>
		{
			Local_enuErrorState = DIO_enuSetPinVal(Copy_pstrLedID->LED_u8PortID, Copy_pstrLedID->LED_u8PinID, DIO_u8HIGH);
		}
		else
		{
			Local_enuErrorState = ES_OUT_OF_RANGE;
     6e4:	83 e0       	ldi	r24, 0x03	; 3
	{
		Local_enuErrorState = ES_NULL_POINTER;
	}
	
	return Local_enuErrorState;
}
     6e6:	df 91       	pop	r29
     6e8:	cf 91       	pop	r28
     6ea:	08 95       	ret

000006ec <LED_enuTurnOFF>:

ES_t LED_enuTurnOFF(LED_t *Copy_pstrLedID)
{
     6ec:	cf 93       	push	r28
     6ee:	df 93       	push	r29
	ES_t Local_enuErrorState = ES_NOK;
	
	if(Copy_pstrLedID != NULL)
     6f0:	00 97       	sbiw	r24, 0x00	; 0
     6f2:	b9 f0       	breq	.+46     	; 0x722 <LED_enuTurnOFF+0x36>
     6f4:	ec 01       	movw	r28, r24
	{
		DIO_enuSetPinDirection(Copy_pstrLedID->LED_u8PortID, Copy_pstrLedID->LED_u8PinID, DIO_u8OUTPUT);
     6f6:	41 e0       	ldi	r20, 0x01	; 1
     6f8:	69 81       	ldd	r22, Y+1	; 0x01
     6fa:	88 81       	ld	r24, Y
     6fc:	0e 94 9c 03 	call	0x738	; 0x738 <DIO_enuSetPinDirection>
		if(Copy_pstrLedID->LED_u8Connection == LED_u8SINK)
     700:	8a 81       	ldd	r24, Y+2	; 0x02
     702:	8c 30       	cpi	r24, 0x0C	; 12
     704:	31 f4       	brne	.+12     	; 0x712 <LED_enuTurnOFF+0x26>
		{
			Local_enuErrorState = DIO_enuSetPinVal(Copy_pstrLedID->LED_u8PortID, Copy_pstrLedID->LED_u8PinID, DIO_u8HIGH);
     706:	69 81       	ldd	r22, Y+1	; 0x01
     708:	41 e0       	ldi	r20, 0x01	; 1
     70a:	88 81       	ld	r24, Y
     70c:	0e 94 0e 04 	call	0x81c	; 0x81c <DIO_enuSetPinVal>
     710:	0b c0       	rjmp	.+22     	; 0x728 <LED_enuTurnOFF+0x3c>
		}
		else if(Copy_pstrLedID->LED_u8Connection == LED_u8SOURCE)
     712:	8d 30       	cpi	r24, 0x0D	; 13
     714:	41 f4       	brne	.+16     	; 0x726 <LED_enuTurnOFF+0x3a>
		{
			Local_enuErrorState = DIO_enuSetPinVal(Copy_pstrLedID->LED_u8PortID, Copy_pstrLedID->LED_u8PinID, DIO_u8LOW);
     716:	69 81       	ldd	r22, Y+1	; 0x01
     718:	40 e0       	ldi	r20, 0x00	; 0
     71a:	88 81       	ld	r24, Y
     71c:	0e 94 0e 04 	call	0x81c	; 0x81c <DIO_enuSetPinVal>
     720:	03 c0       	rjmp	.+6      	; 0x728 <LED_enuTurnOFF+0x3c>
			Local_enuErrorState = ES_OUT_OF_RANGE;
		}
	}
	else
	{
		Local_enuErrorState = ES_NULL_POINTER;
     722:	82 e0       	ldi	r24, 0x02	; 2
     724:	01 c0       	rjmp	.+2      	; 0x728 <LED_enuTurnOFF+0x3c>
		{
			Local_enuErrorState = DIO_enuSetPinVal(Copy_pstrLedID->LED_u8PortID, Copy_pstrLedID->LED_u8PinID, DIO_u8LOW);
		}
		else
		{
			Local_enuErrorState = ES_OUT_OF_RANGE;
     726:	83 e0       	ldi	r24, 0x03	; 3
	{
		Local_enuErrorState = ES_NULL_POINTER;
	}
	
	return Local_enuErrorState;
     728:	df 91       	pop	r29
     72a:	cf 91       	pop	r28
     72c:	08 95       	ret

0000072e <main>:
#include "APP/Traffic_System_config.h"
#include "APP/Traffic_System_int.h"

int main(void)
{	
	TRAFFIC_CONTROL_enuInit();
     72e:	0e 94 82 00 	call	0x104	; 0x104 <TRAFFIC_CONTROL_enuInit>

    /* Replace with your application code */
    while (1) 
    {
		TRAFFIC_CONTROL_enuRunSystem();
     732:	0e 94 79 01 	call	0x2f2	; 0x2f2 <TRAFFIC_CONTROL_enuRunSystem>
     736:	fd cf       	rjmp	.-6      	; 0x732 <main+0x4>

00000738 <DIO_enuSetPinDirection>:
**/
ES_t DIO_enuSetPinDirection(u8 Copy_u8PortID, u8 Copy_u8PinID, u8 Copy_u8Value)
{
	ES_t Local_enuErrorState = ES_NOK;
	
	if(Copy_u8PortID <= DIO_PORTD && Copy_u8PinID <= DIO_PIN7 && Copy_u8Value <= OUTPUT)
     738:	84 30       	cpi	r24, 0x04	; 4
     73a:	08 f0       	brcs	.+2      	; 0x73e <DIO_enuSetPinDirection+0x6>
     73c:	67 c0       	rjmp	.+206    	; 0x80c <__DATA_REGION_LENGTH__+0xc>
     73e:	68 30       	cpi	r22, 0x08	; 8
     740:	08 f0       	brcs	.+2      	; 0x744 <DIO_enuSetPinDirection+0xc>
     742:	66 c0       	rjmp	.+204    	; 0x810 <__DATA_REGION_LENGTH__+0x10>
     744:	42 30       	cpi	r20, 0x02	; 2
     746:	08 f0       	brcs	.+2      	; 0x74a <DIO_enuSetPinDirection+0x12>
     748:	65 c0       	rjmp	.+202    	; 0x814 <__DATA_REGION_LENGTH__+0x14>
	{
		switch(Copy_u8PortID)
     74a:	81 30       	cpi	r24, 0x01	; 1
     74c:	e9 f0       	breq	.+58     	; 0x788 <DIO_enuSetPinDirection+0x50>
     74e:	30 f0       	brcs	.+12     	; 0x75c <DIO_enuSetPinDirection+0x24>
     750:	82 30       	cpi	r24, 0x02	; 2
     752:	81 f1       	breq	.+96     	; 0x7b4 <DIO_enuSetPinDirection+0x7c>
     754:	83 30       	cpi	r24, 0x03	; 3
     756:	09 f4       	brne	.+2      	; 0x75a <DIO_enuSetPinDirection+0x22>
     758:	43 c0       	rjmp	.+134    	; 0x7e0 <DIO_enuSetPinDirection+0xa8>
     75a:	5e c0       	rjmp	.+188    	; 0x818 <__DATA_REGION_LENGTH__+0x18>
		{
			case DIO_PORTA:
			DDRA &= ~(DIO_MASK_BIT << Copy_u8PinID);
     75c:	81 e0       	ldi	r24, 0x01	; 1
     75e:	90 e0       	ldi	r25, 0x00	; 0
     760:	06 2e       	mov	r0, r22
     762:	02 c0       	rjmp	.+4      	; 0x768 <DIO_enuSetPinDirection+0x30>
     764:	88 0f       	add	r24, r24
     766:	99 1f       	adc	r25, r25
     768:	0a 94       	dec	r0
     76a:	e2 f7       	brpl	.-8      	; 0x764 <DIO_enuSetPinDirection+0x2c>
     76c:	80 95       	com	r24
     76e:	2a b3       	in	r18, 0x1a	; 26
     770:	28 23       	and	r18, r24
			DDRA |=  (Copy_u8Value << Copy_u8PinID);
     772:	84 2f       	mov	r24, r20
     774:	90 e0       	ldi	r25, 0x00	; 0
     776:	02 c0       	rjmp	.+4      	; 0x77c <DIO_enuSetPinDirection+0x44>
     778:	88 0f       	add	r24, r24
     77a:	99 1f       	adc	r25, r25
     77c:	6a 95       	dec	r22
     77e:	e2 f7       	brpl	.-8      	; 0x778 <DIO_enuSetPinDirection+0x40>
     780:	82 2b       	or	r24, r18
     782:	8a bb       	out	0x1a, r24	; 26
			case DIO_PORTD:
			DDRD &= ~(DIO_MASK_BIT << Copy_u8PinID);
			DDRD |=  (Copy_u8Value << Copy_u8PinID);
			break;
		}
		Local_enuErrorState = ES_OK;
     784:	80 e0       	ldi	r24, 0x00	; 0
		switch(Copy_u8PortID)
		{
			case DIO_PORTA:
			DDRA &= ~(DIO_MASK_BIT << Copy_u8PinID);
			DDRA |=  (Copy_u8Value << Copy_u8PinID);
			break;
     786:	08 95       	ret
			
			case DIO_PORTB:
			DDRB &= ~(DIO_MASK_BIT << Copy_u8PinID);
     788:	21 e0       	ldi	r18, 0x01	; 1
     78a:	30 e0       	ldi	r19, 0x00	; 0
     78c:	06 2e       	mov	r0, r22
     78e:	02 c0       	rjmp	.+4      	; 0x794 <DIO_enuSetPinDirection+0x5c>
     790:	22 0f       	add	r18, r18
     792:	33 1f       	adc	r19, r19
     794:	0a 94       	dec	r0
     796:	e2 f7       	brpl	.-8      	; 0x790 <DIO_enuSetPinDirection+0x58>
     798:	20 95       	com	r18
     79a:	87 b3       	in	r24, 0x17	; 23
     79c:	28 23       	and	r18, r24
			DDRB |=  (Copy_u8Value << Copy_u8PinID);
     79e:	84 2f       	mov	r24, r20
     7a0:	90 e0       	ldi	r25, 0x00	; 0
     7a2:	02 c0       	rjmp	.+4      	; 0x7a8 <DIO_enuSetPinDirection+0x70>
     7a4:	88 0f       	add	r24, r24
     7a6:	99 1f       	adc	r25, r25
     7a8:	6a 95       	dec	r22
     7aa:	e2 f7       	brpl	.-8      	; 0x7a4 <DIO_enuSetPinDirection+0x6c>
     7ac:	82 2b       	or	r24, r18
     7ae:	87 bb       	out	0x17, r24	; 23
			case DIO_PORTD:
			DDRD &= ~(DIO_MASK_BIT << Copy_u8PinID);
			DDRD |=  (Copy_u8Value << Copy_u8PinID);
			break;
		}
		Local_enuErrorState = ES_OK;
     7b0:	80 e0       	ldi	r24, 0x00	; 0
			break;
			
			case DIO_PORTB:
			DDRB &= ~(DIO_MASK_BIT << Copy_u8PinID);
			DDRB |=  (Copy_u8Value << Copy_u8PinID);
			break;
     7b2:	08 95       	ret
			
			case DIO_PORTC:
			DDRC &= ~(DIO_MASK_BIT << Copy_u8PinID);
     7b4:	21 e0       	ldi	r18, 0x01	; 1
     7b6:	30 e0       	ldi	r19, 0x00	; 0
     7b8:	06 2e       	mov	r0, r22
     7ba:	02 c0       	rjmp	.+4      	; 0x7c0 <DIO_enuSetPinDirection+0x88>
     7bc:	22 0f       	add	r18, r18
     7be:	33 1f       	adc	r19, r19
     7c0:	0a 94       	dec	r0
     7c2:	e2 f7       	brpl	.-8      	; 0x7bc <DIO_enuSetPinDirection+0x84>
     7c4:	20 95       	com	r18
     7c6:	84 b3       	in	r24, 0x14	; 20
     7c8:	28 23       	and	r18, r24
			DDRC |=  (Copy_u8Value << Copy_u8PinID);
     7ca:	84 2f       	mov	r24, r20
     7cc:	90 e0       	ldi	r25, 0x00	; 0
     7ce:	02 c0       	rjmp	.+4      	; 0x7d4 <DIO_enuSetPinDirection+0x9c>
     7d0:	88 0f       	add	r24, r24
     7d2:	99 1f       	adc	r25, r25
     7d4:	6a 95       	dec	r22
     7d6:	e2 f7       	brpl	.-8      	; 0x7d0 <DIO_enuSetPinDirection+0x98>
     7d8:	82 2b       	or	r24, r18
     7da:	84 bb       	out	0x14, r24	; 20
			case DIO_PORTD:
			DDRD &= ~(DIO_MASK_BIT << Copy_u8PinID);
			DDRD |=  (Copy_u8Value << Copy_u8PinID);
			break;
		}
		Local_enuErrorState = ES_OK;
     7dc:	80 e0       	ldi	r24, 0x00	; 0
			break;
			
			case DIO_PORTC:
			DDRC &= ~(DIO_MASK_BIT << Copy_u8PinID);
			DDRC |=  (Copy_u8Value << Copy_u8PinID);
			break;
     7de:	08 95       	ret
			
			case DIO_PORTD:
			DDRD &= ~(DIO_MASK_BIT << Copy_u8PinID);
     7e0:	21 e0       	ldi	r18, 0x01	; 1
     7e2:	30 e0       	ldi	r19, 0x00	; 0
     7e4:	06 2e       	mov	r0, r22
     7e6:	02 c0       	rjmp	.+4      	; 0x7ec <DIO_enuSetPinDirection+0xb4>
     7e8:	22 0f       	add	r18, r18
     7ea:	33 1f       	adc	r19, r19
     7ec:	0a 94       	dec	r0
     7ee:	e2 f7       	brpl	.-8      	; 0x7e8 <DIO_enuSetPinDirection+0xb0>
     7f0:	20 95       	com	r18
     7f2:	81 b3       	in	r24, 0x11	; 17
     7f4:	28 23       	and	r18, r24
			DDRD |=  (Copy_u8Value << Copy_u8PinID);
     7f6:	84 2f       	mov	r24, r20
     7f8:	90 e0       	ldi	r25, 0x00	; 0
     7fa:	02 c0       	rjmp	.+4      	; 0x800 <__DATA_REGION_LENGTH__>
     7fc:	88 0f       	add	r24, r24
     7fe:	99 1f       	adc	r25, r25
     800:	6a 95       	dec	r22
     802:	e2 f7       	brpl	.-8      	; 0x7fc <DIO_enuSetPinDirection+0xc4>
     804:	82 2b       	or	r24, r18
     806:	81 bb       	out	0x11, r24	; 17
			break;
		}
		Local_enuErrorState = ES_OK;
     808:	80 e0       	ldi	r24, 0x00	; 0
			break;
			
			case DIO_PORTD:
			DDRD &= ~(DIO_MASK_BIT << Copy_u8PinID);
			DDRD |=  (Copy_u8Value << Copy_u8PinID);
			break;
     80a:	08 95       	ret
		}
		Local_enuErrorState = ES_OK;
	}
	else
	{
		Local_enuErrorState = ES_OUT_OF_RANGE;
     80c:	83 e0       	ldi	r24, 0x03	; 3
     80e:	08 95       	ret
     810:	83 e0       	ldi	r24, 0x03	; 3
     812:	08 95       	ret
     814:	83 e0       	ldi	r24, 0x03	; 3
     816:	08 95       	ret
			case DIO_PORTD:
			DDRD &= ~(DIO_MASK_BIT << Copy_u8PinID);
			DDRD |=  (Copy_u8Value << Copy_u8PinID);
			break;
		}
		Local_enuErrorState = ES_OK;
     818:	80 e0       	ldi	r24, 0x00	; 0
	{
		Local_enuErrorState = ES_OUT_OF_RANGE;
	}
	
	return Local_enuErrorState;
}
     81a:	08 95       	ret

0000081c <DIO_enuSetPinVal>:
**/
ES_t DIO_enuSetPinVal(u8 Copy_u8PortID, u8 Copy_u8PinID, u8 Copy_u8Value)
{
	ES_t Local_enuErrorState = ES_NOK;
	
	if(Copy_u8PortID <= DIO_PORTD && Copy_u8PinID <= DIO_PIN7 && Copy_u8Value <= OUTPUT)
     81c:	84 30       	cpi	r24, 0x04	; 4
     81e:	08 f0       	brcs	.+2      	; 0x822 <DIO_enuSetPinVal+0x6>
     820:	67 c0       	rjmp	.+206    	; 0x8f0 <__stack+0x91>
     822:	68 30       	cpi	r22, 0x08	; 8
     824:	08 f0       	brcs	.+2      	; 0x828 <DIO_enuSetPinVal+0xc>
     826:	66 c0       	rjmp	.+204    	; 0x8f4 <__stack+0x95>
     828:	42 30       	cpi	r20, 0x02	; 2
     82a:	08 f0       	brcs	.+2      	; 0x82e <DIO_enuSetPinVal+0x12>
     82c:	65 c0       	rjmp	.+202    	; 0x8f8 <__stack+0x99>
	{
		switch(Copy_u8PortID)
     82e:	81 30       	cpi	r24, 0x01	; 1
     830:	e9 f0       	breq	.+58     	; 0x86c <__stack+0xd>
     832:	30 f0       	brcs	.+12     	; 0x840 <DIO_enuSetPinVal+0x24>
     834:	82 30       	cpi	r24, 0x02	; 2
     836:	81 f1       	breq	.+96     	; 0x898 <__stack+0x39>
     838:	83 30       	cpi	r24, 0x03	; 3
     83a:	09 f4       	brne	.+2      	; 0x83e <DIO_enuSetPinVal+0x22>
     83c:	43 c0       	rjmp	.+134    	; 0x8c4 <__stack+0x65>
     83e:	5e c0       	rjmp	.+188    	; 0x8fc <__stack+0x9d>
		{
			case DIO_PORTA:
			PORTA &= ~(DIO_MASK_BIT << Copy_u8PinID);
     840:	81 e0       	ldi	r24, 0x01	; 1
     842:	90 e0       	ldi	r25, 0x00	; 0
     844:	06 2e       	mov	r0, r22
     846:	02 c0       	rjmp	.+4      	; 0x84c <DIO_enuSetPinVal+0x30>
     848:	88 0f       	add	r24, r24
     84a:	99 1f       	adc	r25, r25
     84c:	0a 94       	dec	r0
     84e:	e2 f7       	brpl	.-8      	; 0x848 <DIO_enuSetPinVal+0x2c>
     850:	80 95       	com	r24
     852:	2b b3       	in	r18, 0x1b	; 27
     854:	28 23       	and	r18, r24
			PORTA |=  (Copy_u8Value << Copy_u8PinID);
     856:	84 2f       	mov	r24, r20
     858:	90 e0       	ldi	r25, 0x00	; 0
     85a:	02 c0       	rjmp	.+4      	; 0x860 <__stack+0x1>
     85c:	88 0f       	add	r24, r24
     85e:	99 1f       	adc	r25, r25
     860:	6a 95       	dec	r22
     862:	e2 f7       	brpl	.-8      	; 0x85c <DIO_enuSetPinVal+0x40>
     864:	82 2b       	or	r24, r18
     866:	8b bb       	out	0x1b, r24	; 27
			case DIO_PORTD:
			PORTD &= ~(DIO_MASK_BIT << Copy_u8PinID);
			PORTD |=  (Copy_u8Value << Copy_u8PinID);
			break;
		}
		Local_enuErrorState = ES_OK;
     868:	80 e0       	ldi	r24, 0x00	; 0
		switch(Copy_u8PortID)
		{
			case DIO_PORTA:
			PORTA &= ~(DIO_MASK_BIT << Copy_u8PinID);
			PORTA |=  (Copy_u8Value << Copy_u8PinID);
			break;
     86a:	08 95       	ret
			
			case DIO_PORTB:
			PORTB &= ~(DIO_MASK_BIT << Copy_u8PinID);
     86c:	21 e0       	ldi	r18, 0x01	; 1
     86e:	30 e0       	ldi	r19, 0x00	; 0
     870:	06 2e       	mov	r0, r22
     872:	02 c0       	rjmp	.+4      	; 0x878 <__stack+0x19>
     874:	22 0f       	add	r18, r18
     876:	33 1f       	adc	r19, r19
     878:	0a 94       	dec	r0
     87a:	e2 f7       	brpl	.-8      	; 0x874 <__stack+0x15>
     87c:	20 95       	com	r18
     87e:	88 b3       	in	r24, 0x18	; 24
     880:	28 23       	and	r18, r24
			PORTB |=  (Copy_u8Value << Copy_u8PinID);
     882:	84 2f       	mov	r24, r20
     884:	90 e0       	ldi	r25, 0x00	; 0
     886:	02 c0       	rjmp	.+4      	; 0x88c <__stack+0x2d>
     888:	88 0f       	add	r24, r24
     88a:	99 1f       	adc	r25, r25
     88c:	6a 95       	dec	r22
     88e:	e2 f7       	brpl	.-8      	; 0x888 <__stack+0x29>
     890:	82 2b       	or	r24, r18
     892:	88 bb       	out	0x18, r24	; 24
			case DIO_PORTD:
			PORTD &= ~(DIO_MASK_BIT << Copy_u8PinID);
			PORTD |=  (Copy_u8Value << Copy_u8PinID);
			break;
		}
		Local_enuErrorState = ES_OK;
     894:	80 e0       	ldi	r24, 0x00	; 0
			break;
			
			case DIO_PORTB:
			PORTB &= ~(DIO_MASK_BIT << Copy_u8PinID);
			PORTB |=  (Copy_u8Value << Copy_u8PinID);
			break;
     896:	08 95       	ret
			
			case DIO_PORTC:
			PORTC &= ~(DIO_MASK_BIT << Copy_u8PinID);
     898:	21 e0       	ldi	r18, 0x01	; 1
     89a:	30 e0       	ldi	r19, 0x00	; 0
     89c:	06 2e       	mov	r0, r22
     89e:	02 c0       	rjmp	.+4      	; 0x8a4 <__stack+0x45>
     8a0:	22 0f       	add	r18, r18
     8a2:	33 1f       	adc	r19, r19
     8a4:	0a 94       	dec	r0
     8a6:	e2 f7       	brpl	.-8      	; 0x8a0 <__stack+0x41>
     8a8:	20 95       	com	r18
     8aa:	85 b3       	in	r24, 0x15	; 21
     8ac:	28 23       	and	r18, r24
			PORTC |=  (Copy_u8Value << Copy_u8PinID);
     8ae:	84 2f       	mov	r24, r20
     8b0:	90 e0       	ldi	r25, 0x00	; 0
     8b2:	02 c0       	rjmp	.+4      	; 0x8b8 <__stack+0x59>
     8b4:	88 0f       	add	r24, r24
     8b6:	99 1f       	adc	r25, r25
     8b8:	6a 95       	dec	r22
     8ba:	e2 f7       	brpl	.-8      	; 0x8b4 <__stack+0x55>
     8bc:	82 2b       	or	r24, r18
     8be:	85 bb       	out	0x15, r24	; 21
			case DIO_PORTD:
			PORTD &= ~(DIO_MASK_BIT << Copy_u8PinID);
			PORTD |=  (Copy_u8Value << Copy_u8PinID);
			break;
		}
		Local_enuErrorState = ES_OK;
     8c0:	80 e0       	ldi	r24, 0x00	; 0
			break;
			
			case DIO_PORTC:
			PORTC &= ~(DIO_MASK_BIT << Copy_u8PinID);
			PORTC |=  (Copy_u8Value << Copy_u8PinID);
			break;
     8c2:	08 95       	ret
			
			case DIO_PORTD:
			PORTD &= ~(DIO_MASK_BIT << Copy_u8PinID);
     8c4:	21 e0       	ldi	r18, 0x01	; 1
     8c6:	30 e0       	ldi	r19, 0x00	; 0
     8c8:	06 2e       	mov	r0, r22
     8ca:	02 c0       	rjmp	.+4      	; 0x8d0 <__stack+0x71>
     8cc:	22 0f       	add	r18, r18
     8ce:	33 1f       	adc	r19, r19
     8d0:	0a 94       	dec	r0
     8d2:	e2 f7       	brpl	.-8      	; 0x8cc <__stack+0x6d>
     8d4:	20 95       	com	r18
     8d6:	82 b3       	in	r24, 0x12	; 18
     8d8:	28 23       	and	r18, r24
			PORTD |=  (Copy_u8Value << Copy_u8PinID);
     8da:	84 2f       	mov	r24, r20
     8dc:	90 e0       	ldi	r25, 0x00	; 0
     8de:	02 c0       	rjmp	.+4      	; 0x8e4 <__stack+0x85>
     8e0:	88 0f       	add	r24, r24
     8e2:	99 1f       	adc	r25, r25
     8e4:	6a 95       	dec	r22
     8e6:	e2 f7       	brpl	.-8      	; 0x8e0 <__stack+0x81>
     8e8:	82 2b       	or	r24, r18
     8ea:	82 bb       	out	0x12, r24	; 18
			break;
		}
		Local_enuErrorState = ES_OK;
     8ec:	80 e0       	ldi	r24, 0x00	; 0
			break;
			
			case DIO_PORTD:
			PORTD &= ~(DIO_MASK_BIT << Copy_u8PinID);
			PORTD |=  (Copy_u8Value << Copy_u8PinID);
			break;
     8ee:	08 95       	ret
		}
		Local_enuErrorState = ES_OK;
	}
	else
	{
		Local_enuErrorState = ES_OUT_OF_RANGE;
     8f0:	83 e0       	ldi	r24, 0x03	; 3
     8f2:	08 95       	ret
     8f4:	83 e0       	ldi	r24, 0x03	; 3
     8f6:	08 95       	ret
     8f8:	83 e0       	ldi	r24, 0x03	; 3
     8fa:	08 95       	ret
			case DIO_PORTD:
			PORTD &= ~(DIO_MASK_BIT << Copy_u8PinID);
			PORTD |=  (Copy_u8Value << Copy_u8PinID);
			break;
		}
		Local_enuErrorState = ES_OK;
     8fc:	80 e0       	ldi	r24, 0x00	; 0
	{
		Local_enuErrorState = ES_OUT_OF_RANGE;
	}
	
	return Local_enuErrorState;
}
     8fe:	08 95       	ret

00000900 <EXTI_enuInit>:
	{
		Local_enuErrorState = ES_OUT_OF_RANGE;
	}
	
	return Local_enuErrorState;
}
     900:	ac 01       	movw	r20, r24
     902:	89 2b       	or	r24, r25
     904:	09 f0       	breq	.+2      	; 0x908 <EXTI_enuInit+0x8>
     906:	86 c0       	rjmp	.+268    	; 0xa14 <EXTI_enuInit+0x114>
     908:	82 e0       	ldi	r24, 0x02	; 2
     90a:	08 95       	ret
     90c:	e9 2f       	mov	r30, r25
     90e:	f0 e0       	ldi	r31, 0x00	; 0
     910:	9f 01       	movw	r18, r30
     912:	22 0f       	add	r18, r18
     914:	33 1f       	adc	r19, r19
     916:	e2 0f       	add	r30, r18
     918:	f3 1f       	adc	r31, r19
     91a:	e4 0f       	add	r30, r20
     91c:	f5 1f       	adc	r31, r21
     91e:	20 81       	ld	r18, Z
     920:	21 30       	cpi	r18, 0x01	; 1
     922:	81 f1       	breq	.+96     	; 0x984 <EXTI_enuInit+0x84>
     924:	20 f0       	brcs	.+8      	; 0x92e <EXTI_enuInit+0x2e>
     926:	22 30       	cpi	r18, 0x02	; 2
     928:	09 f4       	brne	.+2      	; 0x92c <EXTI_enuInit+0x2c>
     92a:	57 c0       	rjmp	.+174    	; 0x9da <EXTI_enuInit+0xda>
     92c:	6a c0       	rjmp	.+212    	; 0xa02 <EXTI_enuInit+0x102>
     92e:	21 81       	ldd	r18, Z+1	; 0x01
     930:	21 11       	cpse	r18, r1
     932:	6e c0       	rjmp	.+220    	; 0xa10 <EXTI_enuInit+0x110>
     934:	25 b7       	in	r18, 0x35	; 53
     936:	2c 7f       	andi	r18, 0xFC	; 252
     938:	25 bf       	out	0x35, r18	; 53
     93a:	22 81       	ldd	r18, Z+2	; 0x02
     93c:	21 30       	cpi	r18, 0x01	; 1
     93e:	69 f0       	breq	.+26     	; 0x95a <EXTI_enuInit+0x5a>
     940:	28 f0       	brcs	.+10     	; 0x94c <EXTI_enuInit+0x4c>
     942:	22 30       	cpi	r18, 0x02	; 2
     944:	89 f0       	breq	.+34     	; 0x968 <EXTI_enuInit+0x68>
     946:	23 30       	cpi	r18, 0x03	; 3
     948:	b1 f0       	breq	.+44     	; 0x976 <EXTI_enuInit+0x76>
     94a:	5d c0       	rjmp	.+186    	; 0xa06 <EXTI_enuInit+0x106>
     94c:	25 b7       	in	r18, 0x35	; 53
     94e:	2e 7f       	andi	r18, 0xFE	; 254
     950:	25 bf       	out	0x35, r18	; 53
     952:	25 b7       	in	r18, 0x35	; 53
     954:	2d 7f       	andi	r18, 0xFD	; 253
     956:	25 bf       	out	0x35, r18	; 53
     958:	5b c0       	rjmp	.+182    	; 0xa10 <EXTI_enuInit+0x110>
     95a:	25 b7       	in	r18, 0x35	; 53
     95c:	21 60       	ori	r18, 0x01	; 1
     95e:	25 bf       	out	0x35, r18	; 53
     960:	25 b7       	in	r18, 0x35	; 53
     962:	2d 7f       	andi	r18, 0xFD	; 253
     964:	25 bf       	out	0x35, r18	; 53
     966:	54 c0       	rjmp	.+168    	; 0xa10 <EXTI_enuInit+0x110>
     968:	25 b7       	in	r18, 0x35	; 53
     96a:	2e 7f       	andi	r18, 0xFE	; 254
     96c:	25 bf       	out	0x35, r18	; 53
     96e:	25 b7       	in	r18, 0x35	; 53
     970:	22 60       	ori	r18, 0x02	; 2
     972:	25 bf       	out	0x35, r18	; 53
     974:	4d c0       	rjmp	.+154    	; 0xa10 <EXTI_enuInit+0x110>
     976:	25 b7       	in	r18, 0x35	; 53
     978:	21 60       	ori	r18, 0x01	; 1
     97a:	25 bf       	out	0x35, r18	; 53
     97c:	25 b7       	in	r18, 0x35	; 53
     97e:	22 60       	ori	r18, 0x02	; 2
     980:	25 bf       	out	0x35, r18	; 53
     982:	46 c0       	rjmp	.+140    	; 0xa10 <EXTI_enuInit+0x110>
     984:	21 81       	ldd	r18, Z+1	; 0x01
     986:	21 11       	cpse	r18, r1
     988:	43 c0       	rjmp	.+134    	; 0xa10 <EXTI_enuInit+0x110>
     98a:	25 b7       	in	r18, 0x35	; 53
     98c:	23 7f       	andi	r18, 0xF3	; 243
     98e:	25 bf       	out	0x35, r18	; 53
     990:	22 81       	ldd	r18, Z+2	; 0x02
     992:	21 30       	cpi	r18, 0x01	; 1
     994:	69 f0       	breq	.+26     	; 0x9b0 <EXTI_enuInit+0xb0>
     996:	28 f0       	brcs	.+10     	; 0x9a2 <EXTI_enuInit+0xa2>
     998:	22 30       	cpi	r18, 0x02	; 2
     99a:	89 f0       	breq	.+34     	; 0x9be <EXTI_enuInit+0xbe>
     99c:	23 30       	cpi	r18, 0x03	; 3
     99e:	b1 f0       	breq	.+44     	; 0x9cc <EXTI_enuInit+0xcc>
     9a0:	34 c0       	rjmp	.+104    	; 0xa0a <EXTI_enuInit+0x10a>
     9a2:	25 b7       	in	r18, 0x35	; 53
     9a4:	2b 7f       	andi	r18, 0xFB	; 251
     9a6:	25 bf       	out	0x35, r18	; 53
     9a8:	25 b7       	in	r18, 0x35	; 53
     9aa:	27 7f       	andi	r18, 0xF7	; 247
     9ac:	25 bf       	out	0x35, r18	; 53
     9ae:	30 c0       	rjmp	.+96     	; 0xa10 <EXTI_enuInit+0x110>
     9b0:	25 b7       	in	r18, 0x35	; 53
     9b2:	24 60       	ori	r18, 0x04	; 4
     9b4:	25 bf       	out	0x35, r18	; 53
     9b6:	25 b7       	in	r18, 0x35	; 53
     9b8:	27 7f       	andi	r18, 0xF7	; 247
     9ba:	25 bf       	out	0x35, r18	; 53
     9bc:	29 c0       	rjmp	.+82     	; 0xa10 <EXTI_enuInit+0x110>
     9be:	25 b7       	in	r18, 0x35	; 53
     9c0:	2b 7f       	andi	r18, 0xFB	; 251
     9c2:	25 bf       	out	0x35, r18	; 53
     9c4:	25 b7       	in	r18, 0x35	; 53
     9c6:	28 60       	ori	r18, 0x08	; 8
     9c8:	25 bf       	out	0x35, r18	; 53
     9ca:	22 c0       	rjmp	.+68     	; 0xa10 <EXTI_enuInit+0x110>
     9cc:	25 b7       	in	r18, 0x35	; 53
     9ce:	24 60       	ori	r18, 0x04	; 4
     9d0:	25 bf       	out	0x35, r18	; 53
     9d2:	25 b7       	in	r18, 0x35	; 53
     9d4:	28 60       	ori	r18, 0x08	; 8
     9d6:	25 bf       	out	0x35, r18	; 53
     9d8:	1b c0       	rjmp	.+54     	; 0xa10 <EXTI_enuInit+0x110>
     9da:	21 81       	ldd	r18, Z+1	; 0x01
     9dc:	21 11       	cpse	r18, r1
     9de:	18 c0       	rjmp	.+48     	; 0xa10 <EXTI_enuInit+0x110>
     9e0:	24 b7       	in	r18, 0x34	; 52
     9e2:	2f 7b       	andi	r18, 0xBF	; 191
     9e4:	24 bf       	out	0x34, r18	; 52
     9e6:	22 81       	ldd	r18, Z+2	; 0x02
     9e8:	22 30       	cpi	r18, 0x02	; 2
     9ea:	19 f0       	breq	.+6      	; 0x9f2 <EXTI_enuInit+0xf2>
     9ec:	23 30       	cpi	r18, 0x03	; 3
     9ee:	29 f0       	breq	.+10     	; 0x9fa <EXTI_enuInit+0xfa>
     9f0:	0e c0       	rjmp	.+28     	; 0xa0e <EXTI_enuInit+0x10e>
     9f2:	24 b7       	in	r18, 0x34	; 52
     9f4:	2f 7b       	andi	r18, 0xBF	; 191
     9f6:	24 bf       	out	0x34, r18	; 52
     9f8:	0b c0       	rjmp	.+22     	; 0xa10 <EXTI_enuInit+0x110>
     9fa:	24 b7       	in	r18, 0x34	; 52
     9fc:	20 64       	ori	r18, 0x40	; 64
     9fe:	24 bf       	out	0x34, r18	; 52
     a00:	07 c0       	rjmp	.+14     	; 0xa10 <EXTI_enuInit+0x110>
     a02:	83 e0       	ldi	r24, 0x03	; 3
     a04:	05 c0       	rjmp	.+10     	; 0xa10 <EXTI_enuInit+0x110>
     a06:	83 e0       	ldi	r24, 0x03	; 3
     a08:	03 c0       	rjmp	.+6      	; 0xa10 <EXTI_enuInit+0x110>
     a0a:	83 e0       	ldi	r24, 0x03	; 3
     a0c:	01 c0       	rjmp	.+2      	; 0xa10 <EXTI_enuInit+0x110>
     a0e:	83 e0       	ldi	r24, 0x03	; 3
     a10:	9f 5f       	subi	r25, 0xFF	; 255
     a12:	02 c0       	rjmp	.+4      	; 0xa18 <EXTI_enuInit+0x118>
     a14:	90 e0       	ldi	r25, 0x00	; 0
     a16:	81 e0       	ldi	r24, 0x01	; 1
     a18:	93 30       	cpi	r25, 0x03	; 3
     a1a:	08 f4       	brcc	.+2      	; 0xa1e <EXTI_enuInit+0x11e>
     a1c:	77 cf       	rjmp	.-274    	; 0x90c <EXTI_enuInit+0xc>
     a1e:	08 95       	ret

00000a20 <EXTI_enuEnable>:
     a20:	83 30       	cpi	r24, 0x03	; 3
     a22:	f0 f4       	brcc	.+60     	; 0xa60 <EXTI_enuEnable+0x40>
     a24:	81 30       	cpi	r24, 0x01	; 1
     a26:	61 f0       	breq	.+24     	; 0xa40 <EXTI_enuEnable+0x20>
     a28:	18 f0       	brcs	.+6      	; 0xa30 <EXTI_enuEnable+0x10>
     a2a:	82 30       	cpi	r24, 0x02	; 2
     a2c:	89 f0       	breq	.+34     	; 0xa50 <EXTI_enuEnable+0x30>
     a2e:	1a c0       	rjmp	.+52     	; 0xa64 <EXTI_enuEnable+0x44>
     a30:	8b b7       	in	r24, 0x3b	; 59
     a32:	8f 7b       	andi	r24, 0xBF	; 191
     a34:	8b bf       	out	0x3b, r24	; 59
     a36:	8b b7       	in	r24, 0x3b	; 59
     a38:	80 64       	ori	r24, 0x40	; 64
     a3a:	8b bf       	out	0x3b, r24	; 59
     a3c:	81 e0       	ldi	r24, 0x01	; 1
     a3e:	08 95       	ret
     a40:	8b b7       	in	r24, 0x3b	; 59
     a42:	8f 77       	andi	r24, 0x7F	; 127
     a44:	8b bf       	out	0x3b, r24	; 59
     a46:	8b b7       	in	r24, 0x3b	; 59
     a48:	80 68       	ori	r24, 0x80	; 128
     a4a:	8b bf       	out	0x3b, r24	; 59
     a4c:	81 e0       	ldi	r24, 0x01	; 1
     a4e:	08 95       	ret
     a50:	8b b7       	in	r24, 0x3b	; 59
     a52:	8f 7d       	andi	r24, 0xDF	; 223
     a54:	8b bf       	out	0x3b, r24	; 59
     a56:	8b b7       	in	r24, 0x3b	; 59
     a58:	80 62       	ori	r24, 0x20	; 32
     a5a:	8b bf       	out	0x3b, r24	; 59
     a5c:	81 e0       	ldi	r24, 0x01	; 1
     a5e:	08 95       	ret
     a60:	83 e0       	ldi	r24, 0x03	; 3
     a62:	08 95       	ret
     a64:	81 e0       	ldi	r24, 0x01	; 1
     a66:	08 95       	ret

00000a68 <EXTI_enuCallBackFunc>:

ES_t EXTI_enuCallBackFunc(volatile void (*Copy_PFunc)(void*), volatile void *Copy_PvidAppParameter, EXTI_ID_t Copy_enuEXTI_Id)
{
	ES_t Local_enuErrorState = ES_NOK;
	
	if(Copy_PFunc != NULL)
     a68:	00 97       	sbiw	r24, 0x00	; 0
     a6a:	89 f0       	breq	.+34     	; 0xa8e <EXTI_enuCallBackFunc+0x26>
	{
		if(Copy_enuEXTI_Id < MAX_NUM_EXTI)
     a6c:	43 30       	cpi	r20, 0x03	; 3
     a6e:	88 f4       	brcc	.+34     	; 0xa92 <EXTI_enuCallBackFunc+0x2a>
		{
			EXTI_APFunc[Copy_enuEXTI_Id] = Copy_PFunc;
     a70:	50 e0       	ldi	r21, 0x00	; 0
     a72:	44 0f       	add	r20, r20
     a74:	55 1f       	adc	r21, r21
     a76:	fa 01       	movw	r30, r20
     a78:	e5 54       	subi	r30, 0x45	; 69
     a7a:	ff 4f       	sbci	r31, 0xFF	; 255
     a7c:	91 83       	std	Z+1, r25	; 0x01
     a7e:	80 83       	st	Z, r24
			EXTI_APvidGenericParameters[Copy_enuEXTI_Id] = Copy_PvidAppParameter;
     a80:	fa 01       	movw	r30, r20
     a82:	eb 54       	subi	r30, 0x4B	; 75
     a84:	ff 4f       	sbci	r31, 0xFF	; 255
     a86:	71 83       	std	Z+1, r23	; 0x01
     a88:	60 83       	st	Z, r22
			Local_enuErrorState = ES_OK;
     a8a:	80 e0       	ldi	r24, 0x00	; 0
     a8c:	08 95       	ret
			Local_enuErrorState = ES_OUT_OF_RANGE;
		}
	}
	else
	{
		Local_enuErrorState = ES_NULL_POINTER;
     a8e:	82 e0       	ldi	r24, 0x02	; 2
     a90:	08 95       	ret
			EXTI_APvidGenericParameters[Copy_enuEXTI_Id] = Copy_PvidAppParameter;
			Local_enuErrorState = ES_OK;
		}
		else
		{
			Local_enuErrorState = ES_OUT_OF_RANGE;
     a92:	83 e0       	ldi	r24, 0x03	; 3
	{
		Local_enuErrorState = ES_NULL_POINTER;
	}
	
	return Local_enuErrorState;
}
     a94:	08 95       	ret

00000a96 <__vector_1>:

/* ISR for EXTI0 */
ISR(VECT_INT0)
{	
     a96:	1f 92       	push	r1
     a98:	0f 92       	push	r0
     a9a:	0f b6       	in	r0, 0x3f	; 63
     a9c:	0f 92       	push	r0
     a9e:	11 24       	eor	r1, r1
     aa0:	2f 93       	push	r18
     aa2:	3f 93       	push	r19
     aa4:	4f 93       	push	r20
     aa6:	5f 93       	push	r21
     aa8:	6f 93       	push	r22
     aaa:	7f 93       	push	r23
     aac:	8f 93       	push	r24
     aae:	9f 93       	push	r25
     ab0:	af 93       	push	r26
     ab2:	bf 93       	push	r27
     ab4:	ef 93       	push	r30
     ab6:	ff 93       	push	r31
	if(EXTI_APFunc[EXTI0] != NULL)
     ab8:	e0 91 bb 00 	lds	r30, 0x00BB	; 0x8000bb <EXTI_APFunc>
     abc:	f0 91 bc 00 	lds	r31, 0x00BC	; 0x8000bc <EXTI_APFunc+0x1>
     ac0:	30 97       	sbiw	r30, 0x00	; 0
     ac2:	29 f0       	breq	.+10     	; 0xace <__vector_1+0x38>
	{
		EXTI_APFunc[EXTI0]((void *)EXTI_APvidGenericParameters[EXTI0]);
     ac4:	80 91 b5 00 	lds	r24, 0x00B5	; 0x8000b5 <EXTI_APvidGenericParameters>
     ac8:	90 91 b6 00 	lds	r25, 0x00B6	; 0x8000b6 <EXTI_APvidGenericParameters+0x1>
     acc:	09 95       	icall
	}
}
     ace:	ff 91       	pop	r31
     ad0:	ef 91       	pop	r30
     ad2:	bf 91       	pop	r27
     ad4:	af 91       	pop	r26
     ad6:	9f 91       	pop	r25
     ad8:	8f 91       	pop	r24
     ada:	7f 91       	pop	r23
     adc:	6f 91       	pop	r22
     ade:	5f 91       	pop	r21
     ae0:	4f 91       	pop	r20
     ae2:	3f 91       	pop	r19
     ae4:	2f 91       	pop	r18
     ae6:	0f 90       	pop	r0
     ae8:	0f be       	out	0x3f, r0	; 63
     aea:	0f 90       	pop	r0
     aec:	1f 90       	pop	r1
     aee:	18 95       	reti

00000af0 <__vector_2>:

/* ISR for EXTI1 */
ISR(VECT_INT1)
{
     af0:	1f 92       	push	r1
     af2:	0f 92       	push	r0
     af4:	0f b6       	in	r0, 0x3f	; 63
     af6:	0f 92       	push	r0
     af8:	11 24       	eor	r1, r1
     afa:	2f 93       	push	r18
     afc:	3f 93       	push	r19
     afe:	4f 93       	push	r20
     b00:	5f 93       	push	r21
     b02:	6f 93       	push	r22
     b04:	7f 93       	push	r23
     b06:	8f 93       	push	r24
     b08:	9f 93       	push	r25
     b0a:	af 93       	push	r26
     b0c:	bf 93       	push	r27
     b0e:	ef 93       	push	r30
     b10:	ff 93       	push	r31
	if(EXTI_APFunc[EXTI1] != NULL)
     b12:	e0 91 bd 00 	lds	r30, 0x00BD	; 0x8000bd <EXTI_APFunc+0x2>
     b16:	f0 91 be 00 	lds	r31, 0x00BE	; 0x8000be <EXTI_APFunc+0x3>
     b1a:	30 97       	sbiw	r30, 0x00	; 0
     b1c:	29 f0       	breq	.+10     	; 0xb28 <__vector_2+0x38>
	{
		EXTI_APFunc[EXTI1]((void *)EXTI_APvidGenericParameters[EXTI1]);
     b1e:	80 91 b7 00 	lds	r24, 0x00B7	; 0x8000b7 <EXTI_APvidGenericParameters+0x2>
     b22:	90 91 b8 00 	lds	r25, 0x00B8	; 0x8000b8 <EXTI_APvidGenericParameters+0x3>
     b26:	09 95       	icall
	}
}
     b28:	ff 91       	pop	r31
     b2a:	ef 91       	pop	r30
     b2c:	bf 91       	pop	r27
     b2e:	af 91       	pop	r26
     b30:	9f 91       	pop	r25
     b32:	8f 91       	pop	r24
     b34:	7f 91       	pop	r23
     b36:	6f 91       	pop	r22
     b38:	5f 91       	pop	r21
     b3a:	4f 91       	pop	r20
     b3c:	3f 91       	pop	r19
     b3e:	2f 91       	pop	r18
     b40:	0f 90       	pop	r0
     b42:	0f be       	out	0x3f, r0	; 63
     b44:	0f 90       	pop	r0
     b46:	1f 90       	pop	r1
     b48:	18 95       	reti

00000b4a <__vector_3>:

/* ISR for EXTI2 */
ISR(VECT_INT2)
{	
     b4a:	1f 92       	push	r1
     b4c:	0f 92       	push	r0
     b4e:	0f b6       	in	r0, 0x3f	; 63
     b50:	0f 92       	push	r0
     b52:	11 24       	eor	r1, r1
     b54:	2f 93       	push	r18
     b56:	3f 93       	push	r19
     b58:	4f 93       	push	r20
     b5a:	5f 93       	push	r21
     b5c:	6f 93       	push	r22
     b5e:	7f 93       	push	r23
     b60:	8f 93       	push	r24
     b62:	9f 93       	push	r25
     b64:	af 93       	push	r26
     b66:	bf 93       	push	r27
     b68:	ef 93       	push	r30
     b6a:	ff 93       	push	r31
	if(EXTI_APFunc[EXTI2] != NULL)
     b6c:	e0 91 bf 00 	lds	r30, 0x00BF	; 0x8000bf <EXTI_APFunc+0x4>
     b70:	f0 91 c0 00 	lds	r31, 0x00C0	; 0x8000c0 <EXTI_APFunc+0x5>
     b74:	30 97       	sbiw	r30, 0x00	; 0
     b76:	29 f0       	breq	.+10     	; 0xb82 <__vector_3+0x38>
	{
		EXTI_APFunc[EXTI2]((void *)EXTI_APvidGenericParameters[EXTI2]);
     b78:	80 91 b9 00 	lds	r24, 0x00B9	; 0x8000b9 <EXTI_APvidGenericParameters+0x4>
     b7c:	90 91 ba 00 	lds	r25, 0x00BA	; 0x8000ba <EXTI_APvidGenericParameters+0x5>
     b80:	09 95       	icall
	}
     b82:	ff 91       	pop	r31
     b84:	ef 91       	pop	r30
     b86:	bf 91       	pop	r27
     b88:	af 91       	pop	r26
     b8a:	9f 91       	pop	r25
     b8c:	8f 91       	pop	r24
     b8e:	7f 91       	pop	r23
     b90:	6f 91       	pop	r22
     b92:	5f 91       	pop	r21
     b94:	4f 91       	pop	r20
     b96:	3f 91       	pop	r19
     b98:	2f 91       	pop	r18
     b9a:	0f 90       	pop	r0
     b9c:	0f be       	out	0x3f, r0	; 63
     b9e:	0f 90       	pop	r0
     ba0:	1f 90       	pop	r1
     ba2:	18 95       	reti

00000ba4 <GIE_enuGloable_Interrupt_Enable>:

ES_t GIE_enuGloable_Interrupt_Enable(void)
{
	ES_t Local_enuErrorState = ES_NOK;
	
	SREG &= ~(MASK_BIT << GIE_I);
     ba4:	8f b7       	in	r24, 0x3f	; 63
     ba6:	8f 77       	andi	r24, 0x7F	; 127
     ba8:	8f bf       	out	0x3f, r24	; 63
	SREG |= (MASK_BIT << GIE_I);
     baa:	8f b7       	in	r24, 0x3f	; 63
     bac:	80 68       	ori	r24, 0x80	; 128
     bae:	8f bf       	out	0x3f, r24	; 63
	Local_enuErrorState = ES_OK;
	
	return Local_enuErrorState;
}
     bb0:	80 e0       	ldi	r24, 0x00	; 0
     bb2:	08 95       	ret

00000bb4 <GIE_enuGloable_Interrupt_Disable>:

ES_t GIE_enuGloable_Interrupt_Disable(void)
{
	ES_t Local_enuErrorState = ES_NOK;
	
	SREG &= ~(MASK_BIT << GIE_I);
     bb4:	8f b7       	in	r24, 0x3f	; 63
     bb6:	8f 77       	andi	r24, 0x7F	; 127
     bb8:	8f bf       	out	0x3f, r24	; 63
	Local_enuErrorState = ES_OK;
	
	return Local_enuErrorState;
     bba:	80 e0       	ldi	r24, 0x00	; 0
     bbc:	08 95       	ret

00000bbe <TIMER0_enuInit>:
	
	TIMSK |= (MASK_BIT << OCIE0);
	Local_enuErrorState = ES_OK;
	
	return Local_enuErrorState;
}
     bbe:	83 b7       	in	r24, 0x33	; 51
     bc0:	87 7b       	andi	r24, 0xB7	; 183
     bc2:	83 bf       	out	0x33, r24	; 51
     bc4:	83 b7       	in	r24, 0x33	; 51
     bc6:	8f 7b       	andi	r24, 0xBF	; 191
     bc8:	83 bf       	out	0x33, r24	; 51
     bca:	83 b7       	in	r24, 0x33	; 51
     bcc:	87 7f       	andi	r24, 0xF7	; 247
     bce:	83 bf       	out	0x33, r24	; 51
     bd0:	83 b7       	in	r24, 0x33	; 51
     bd2:	88 7f       	andi	r24, 0xF8	; 248
     bd4:	83 bf       	out	0x33, r24	; 51
     bd6:	83 b7       	in	r24, 0x33	; 51
     bd8:	81 60       	ori	r24, 0x01	; 1
     bda:	83 bf       	out	0x33, r24	; 51
     bdc:	83 b7       	in	r24, 0x33	; 51
     bde:	8d 7f       	andi	r24, 0xFD	; 253
     be0:	83 bf       	out	0x33, r24	; 51
     be2:	83 b7       	in	r24, 0x33	; 51
     be4:	84 60       	ori	r24, 0x04	; 4
     be6:	83 bf       	out	0x33, r24	; 51
     be8:	83 b7       	in	r24, 0x33	; 51
     bea:	8f 7c       	andi	r24, 0xCF	; 207
     bec:	83 bf       	out	0x33, r24	; 51
     bee:	83 b7       	in	r24, 0x33	; 51
     bf0:	8f 7e       	andi	r24, 0xEF	; 239
     bf2:	83 bf       	out	0x33, r24	; 51
     bf4:	83 b7       	in	r24, 0x33	; 51
     bf6:	8f 7d       	andi	r24, 0xDF	; 223
     bf8:	83 bf       	out	0x33, r24	; 51
     bfa:	80 e0       	ldi	r24, 0x00	; 0
     bfc:	08 95       	ret

00000bfe <TIMER0_enuDelayMilliSecondSyn>:
     bfe:	8f 92       	push	r8
     c00:	9f 92       	push	r9
     c02:	af 92       	push	r10
     c04:	bf 92       	push	r11
     c06:	cf 92       	push	r12
     c08:	df 92       	push	r13
     c0a:	ef 92       	push	r14
     c0c:	ff 92       	push	r15
     c0e:	0e 94 87 08 	call	0x110e	; 0x110e <__floatunsisf>
     c12:	2f e6       	ldi	r18, 0x6F	; 111
     c14:	32 e1       	ldi	r19, 0x12	; 18
     c16:	43 e8       	ldi	r20, 0x83	; 131
     c18:	53 e4       	ldi	r21, 0x43	; 67
     c1a:	0e 94 e6 07 	call	0xfcc	; 0xfcc <__divsf3>
     c1e:	4b 01       	movw	r8, r22
     c20:	5c 01       	movw	r10, r24
     c22:	0e 94 58 08 	call	0x10b0	; 0x10b0 <__fixunssfsi>
     c26:	6b 01       	movw	r12, r22
     c28:	7c 01       	movw	r14, r24
     c2a:	0e 94 87 08 	call	0x110e	; 0x110e <__floatunsisf>
     c2e:	9b 01       	movw	r18, r22
     c30:	ac 01       	movw	r20, r24
     c32:	c5 01       	movw	r24, r10
     c34:	b4 01       	movw	r22, r8
     c36:	0e 94 74 07 	call	0xee8	; 0xee8 <__subsf3>
     c3a:	4b 01       	movw	r8, r22
     c3c:	5c 01       	movw	r10, r24
     c3e:	20 e0       	ldi	r18, 0x00	; 0
     c40:	30 e0       	ldi	r19, 0x00	; 0
     c42:	a9 01       	movw	r20, r18
     c44:	0e 94 e1 07 	call	0xfc2	; 0xfc2 <__cmpsf2>
     c48:	88 23       	and	r24, r24
     c4a:	a9 f1       	breq	.+106    	; 0xcb6 <TIMER0_enuDelayMilliSecondSyn+0xb8>
     c4c:	8f ef       	ldi	r24, 0xFF	; 255
     c4e:	c8 1a       	sub	r12, r24
     c50:	d8 0a       	sbc	r13, r24
     c52:	e8 0a       	sbc	r14, r24
     c54:	f8 0a       	sbc	r15, r24
     c56:	20 e0       	ldi	r18, 0x00	; 0
     c58:	30 e0       	ldi	r19, 0x00	; 0
     c5a:	40 e8       	ldi	r20, 0x80	; 128
     c5c:	53 e4       	ldi	r21, 0x43	; 67
     c5e:	c5 01       	movw	r24, r10
     c60:	b4 01       	movw	r22, r8
     c62:	0e 94 39 09 	call	0x1272	; 0x1272 <__mulsf3>
     c66:	9b 01       	movw	r18, r22
     c68:	ac 01       	movw	r20, r24
     c6a:	60 e0       	ldi	r22, 0x00	; 0
     c6c:	70 e0       	ldi	r23, 0x00	; 0
     c6e:	80 e8       	ldi	r24, 0x80	; 128
     c70:	93 e4       	ldi	r25, 0x43	; 67
     c72:	0e 94 74 07 	call	0xee8	; 0xee8 <__subsf3>
     c76:	0e 94 58 08 	call	0x10b0	; 0x10b0 <__fixunssfsi>
     c7a:	62 bf       	out	0x32, r22	; 50
     c7c:	0b c0       	rjmp	.+22     	; 0xc94 <TIMER0_enuDelayMilliSecondSyn+0x96>
     c7e:	08 b6       	in	r0, 0x38	; 56
     c80:	00 fe       	sbrs	r0, 0
     c82:	fd cf       	rjmp	.-6      	; 0xc7e <TIMER0_enuDelayMilliSecondSyn+0x80>
     c84:	88 b7       	in	r24, 0x38	; 56
     c86:	81 60       	ori	r24, 0x01	; 1
     c88:	88 bf       	out	0x38, r24	; 56
     c8a:	81 e0       	ldi	r24, 0x01	; 1
     c8c:	c8 1a       	sub	r12, r24
     c8e:	d1 08       	sbc	r13, r1
     c90:	e1 08       	sbc	r14, r1
     c92:	f1 08       	sbc	r15, r1
     c94:	c1 14       	cp	r12, r1
     c96:	d1 04       	cpc	r13, r1
     c98:	e1 04       	cpc	r14, r1
     c9a:	f1 04       	cpc	r15, r1
     c9c:	81 f7       	brne	.-32     	; 0xc7e <TIMER0_enuDelayMilliSecondSyn+0x80>
     c9e:	14 c0       	rjmp	.+40     	; 0xcc8 <TIMER0_enuDelayMilliSecondSyn+0xca>
     ca0:	08 b6       	in	r0, 0x38	; 56
     ca2:	00 fe       	sbrs	r0, 0
     ca4:	fd cf       	rjmp	.-6      	; 0xca0 <TIMER0_enuDelayMilliSecondSyn+0xa2>
     ca6:	88 b7       	in	r24, 0x38	; 56
     ca8:	81 60       	ori	r24, 0x01	; 1
     caa:	88 bf       	out	0x38, r24	; 56
     cac:	41 50       	subi	r20, 0x01	; 1
     cae:	51 09       	sbc	r21, r1
     cb0:	61 09       	sbc	r22, r1
     cb2:	71 09       	sbc	r23, r1
     cb4:	04 c0       	rjmp	.+8      	; 0xcbe <TIMER0_enuDelayMilliSecondSyn+0xc0>
     cb6:	46 e0       	ldi	r20, 0x06	; 6
     cb8:	51 e0       	ldi	r21, 0x01	; 1
     cba:	60 e0       	ldi	r22, 0x00	; 0
     cbc:	70 e0       	ldi	r23, 0x00	; 0
     cbe:	41 15       	cp	r20, r1
     cc0:	51 05       	cpc	r21, r1
     cc2:	61 05       	cpc	r22, r1
     cc4:	71 05       	cpc	r23, r1
     cc6:	61 f7       	brne	.-40     	; 0xca0 <TIMER0_enuDelayMilliSecondSyn+0xa2>
     cc8:	80 e0       	ldi	r24, 0x00	; 0
     cca:	ff 90       	pop	r15
     ccc:	ef 90       	pop	r14
     cce:	df 90       	pop	r13
     cd0:	cf 90       	pop	r12
     cd2:	bf 90       	pop	r11
     cd4:	af 90       	pop	r10
     cd6:	9f 90       	pop	r9
     cd8:	8f 90       	pop	r8
     cda:	08 95       	ret

00000cdc <TIMER0_enuDelayMilliSecondASyn>:
     cdc:	8f 92       	push	r8
     cde:	9f 92       	push	r9
     ce0:	af 92       	push	r10
     ce2:	bf 92       	push	r11
     ce4:	cf 92       	push	r12
     ce6:	df 92       	push	r13
     ce8:	ef 92       	push	r14
     cea:	ff 92       	push	r15
     cec:	0f 93       	push	r16
     cee:	1f 93       	push	r17
     cf0:	cf 93       	push	r28
     cf2:	df 93       	push	r29
     cf4:	ea 01       	movw	r28, r20
     cf6:	89 01       	movw	r16, r18
     cf8:	29 b7       	in	r18, 0x39	; 57
     cfa:	2e 7f       	andi	r18, 0xFE	; 254
     cfc:	29 bf       	out	0x39, r18	; 57
     cfe:	0e 94 87 08 	call	0x110e	; 0x110e <__floatunsisf>
     d02:	2f e6       	ldi	r18, 0x6F	; 111
     d04:	32 e1       	ldi	r19, 0x12	; 18
     d06:	43 e8       	ldi	r20, 0x83	; 131
     d08:	53 e4       	ldi	r21, 0x43	; 67
     d0a:	0e 94 e6 07 	call	0xfcc	; 0xfcc <__divsf3>
     d0e:	4b 01       	movw	r8, r22
     d10:	5c 01       	movw	r10, r24
     d12:	0e 94 58 08 	call	0x10b0	; 0x10b0 <__fixunssfsi>
     d16:	6b 01       	movw	r12, r22
     d18:	7c 01       	movw	r14, r24
     d1a:	0e 94 87 08 	call	0x110e	; 0x110e <__floatunsisf>
     d1e:	9b 01       	movw	r18, r22
     d20:	ac 01       	movw	r20, r24
     d22:	c5 01       	movw	r24, r10
     d24:	b4 01       	movw	r22, r8
     d26:	0e 94 74 07 	call	0xee8	; 0xee8 <__subsf3>
     d2a:	4b 01       	movw	r8, r22
     d2c:	5c 01       	movw	r10, r24
     d2e:	20 e0       	ldi	r18, 0x00	; 0
     d30:	30 e0       	ldi	r19, 0x00	; 0
     d32:	a9 01       	movw	r20, r18
     d34:	0e 94 e1 07 	call	0xfc2	; 0xfc2 <__cmpsf2>
     d38:	88 23       	and	r24, r24
     d3a:	19 f1       	breq	.+70     	; 0xd82 <TIMER0_enuDelayMilliSecondASyn+0xa6>
     d3c:	8f ef       	ldi	r24, 0xFF	; 255
     d3e:	c8 1a       	sub	r12, r24
     d40:	d8 0a       	sbc	r13, r24
     d42:	e8 0a       	sbc	r14, r24
     d44:	f8 0a       	sbc	r15, r24
     d46:	20 e0       	ldi	r18, 0x00	; 0
     d48:	30 e0       	ldi	r19, 0x00	; 0
     d4a:	40 e8       	ldi	r20, 0x80	; 128
     d4c:	53 e4       	ldi	r21, 0x43	; 67
     d4e:	c5 01       	movw	r24, r10
     d50:	b4 01       	movw	r22, r8
     d52:	0e 94 39 09 	call	0x1272	; 0x1272 <__mulsf3>
     d56:	9b 01       	movw	r18, r22
     d58:	ac 01       	movw	r20, r24
     d5a:	60 e0       	ldi	r22, 0x00	; 0
     d5c:	70 e0       	ldi	r23, 0x00	; 0
     d5e:	80 e8       	ldi	r24, 0x80	; 128
     d60:	93 e4       	ldi	r25, 0x43	; 67
     d62:	0e 94 74 07 	call	0xee8	; 0xee8 <__subsf3>
     d66:	0e 94 58 08 	call	0x10b0	; 0x10b0 <__fixunssfsi>
     d6a:	c0 92 c5 00 	sts	0x00C5, r12	; 0x8000c5 <TIMER0_NUM_OVF>
     d6e:	d0 92 c6 00 	sts	0x00C6, r13	; 0x8000c6 <TIMER0_NUM_OVF+0x1>
     d72:	e0 92 c7 00 	sts	0x00C7, r14	; 0x8000c7 <TIMER0_NUM_OVF+0x2>
     d76:	f0 92 c8 00 	sts	0x00C8, r15	; 0x8000c8 <TIMER0_NUM_OVF+0x3>
     d7a:	60 93 c9 00 	sts	0x00C9, r22	; 0x8000c9 <TIMER0_PRELOAD>
     d7e:	62 bf       	out	0x32, r22	; 50
     d80:	08 c0       	rjmp	.+16     	; 0xd92 <TIMER0_enuDelayMilliSecondASyn+0xb6>
     d82:	c0 92 c5 00 	sts	0x00C5, r12	; 0x8000c5 <TIMER0_NUM_OVF>
     d86:	d0 92 c6 00 	sts	0x00C6, r13	; 0x8000c6 <TIMER0_NUM_OVF+0x1>
     d8a:	e0 92 c7 00 	sts	0x00C7, r14	; 0x8000c7 <TIMER0_NUM_OVF+0x2>
     d8e:	f0 92 c8 00 	sts	0x00C8, r15	; 0x8000c8 <TIMER0_NUM_OVF+0x3>
     d92:	20 97       	sbiw	r28, 0x00	; 0
     d94:	51 f0       	breq	.+20     	; 0xdaa <TIMER0_enuDelayMilliSecondASyn+0xce>
     d96:	d0 93 d1 00 	sts	0x00D1, r29	; 0x8000d1 <TIMER0_PFunISRfun_OVF+0x1>
     d9a:	c0 93 d0 00 	sts	0x00D0, r28	; 0x8000d0 <TIMER0_PFunISRfun_OVF>
     d9e:	10 93 cf 00 	sts	0x00CF, r17	; 0x8000cf <TIMER0_PvidISRparameter_OVF+0x1>
     da2:	00 93 ce 00 	sts	0x00CE, r16	; 0x8000ce <TIMER0_PvidISRparameter_OVF>
     da6:	80 e0       	ldi	r24, 0x00	; 0
     da8:	01 c0       	rjmp	.+2      	; 0xdac <TIMER0_enuDelayMilliSecondASyn+0xd0>
     daa:	82 e0       	ldi	r24, 0x02	; 2
     dac:	99 b7       	in	r25, 0x39	; 57
     dae:	91 60       	ori	r25, 0x01	; 1
     db0:	99 bf       	out	0x39, r25	; 57
     db2:	df 91       	pop	r29
     db4:	cf 91       	pop	r28
     db6:	1f 91       	pop	r17
     db8:	0f 91       	pop	r16
     dba:	ff 90       	pop	r15
     dbc:	ef 90       	pop	r14
     dbe:	df 90       	pop	r13
     dc0:	cf 90       	pop	r12
     dc2:	bf 90       	pop	r11
     dc4:	af 90       	pop	r10
     dc6:	9f 90       	pop	r9
     dc8:	8f 90       	pop	r8
     dca:	08 95       	ret

00000dcc <TIMER0_enuEnableOVFInterrupt>:
     dcc:	89 b7       	in	r24, 0x39	; 57
     dce:	81 60       	ori	r24, 0x01	; 1
     dd0:	89 bf       	out	0x39, r24	; 57
     dd2:	80 e0       	ldi	r24, 0x00	; 0
     dd4:	08 95       	ret

00000dd6 <__vector_11>:

ISR(VECT_TIMER0_OVF)
{
     dd6:	1f 92       	push	r1
     dd8:	0f 92       	push	r0
     dda:	0f b6       	in	r0, 0x3f	; 63
     ddc:	0f 92       	push	r0
     dde:	11 24       	eor	r1, r1
     de0:	2f 93       	push	r18
     de2:	3f 93       	push	r19
     de4:	4f 93       	push	r20
     de6:	5f 93       	push	r21
     de8:	6f 93       	push	r22
     dea:	7f 93       	push	r23
     dec:	8f 93       	push	r24
     dee:	9f 93       	push	r25
     df0:	af 93       	push	r26
     df2:	bf 93       	push	r27
     df4:	ef 93       	push	r30
     df6:	ff 93       	push	r31
	if(TIMER0_PFunISRfun_OVF != NULL)
     df8:	80 91 d0 00 	lds	r24, 0x00D0	; 0x8000d0 <TIMER0_PFunISRfun_OVF>
     dfc:	90 91 d1 00 	lds	r25, 0x00D1	; 0x8000d1 <TIMER0_PFunISRfun_OVF+0x1>
     e00:	89 2b       	or	r24, r25
     e02:	a1 f1       	breq	.+104    	; 0xe6c <__vector_11+0x96>
	{
		static u32 Local_u32Counter = 0;
		Local_u32Counter++;
     e04:	80 91 c1 00 	lds	r24, 0x00C1	; 0x8000c1 <Local_u32Counter.1659>
     e08:	90 91 c2 00 	lds	r25, 0x00C2	; 0x8000c2 <Local_u32Counter.1659+0x1>
     e0c:	a0 91 c3 00 	lds	r26, 0x00C3	; 0x8000c3 <Local_u32Counter.1659+0x2>
     e10:	b0 91 c4 00 	lds	r27, 0x00C4	; 0x8000c4 <Local_u32Counter.1659+0x3>
     e14:	01 96       	adiw	r24, 0x01	; 1
     e16:	a1 1d       	adc	r26, r1
     e18:	b1 1d       	adc	r27, r1
     e1a:	80 93 c1 00 	sts	0x00C1, r24	; 0x8000c1 <Local_u32Counter.1659>
     e1e:	90 93 c2 00 	sts	0x00C2, r25	; 0x8000c2 <Local_u32Counter.1659+0x1>
     e22:	a0 93 c3 00 	sts	0x00C3, r26	; 0x8000c3 <Local_u32Counter.1659+0x2>
     e26:	b0 93 c4 00 	sts	0x00C4, r27	; 0x8000c4 <Local_u32Counter.1659+0x3>
		if(Local_u32Counter == TIMER0_NUM_OVF)
     e2a:	40 91 c5 00 	lds	r20, 0x00C5	; 0x8000c5 <TIMER0_NUM_OVF>
     e2e:	50 91 c6 00 	lds	r21, 0x00C6	; 0x8000c6 <TIMER0_NUM_OVF+0x1>
     e32:	60 91 c7 00 	lds	r22, 0x00C7	; 0x8000c7 <TIMER0_NUM_OVF+0x2>
     e36:	70 91 c8 00 	lds	r23, 0x00C8	; 0x8000c8 <TIMER0_NUM_OVF+0x3>
     e3a:	84 17       	cp	r24, r20
     e3c:	95 07       	cpc	r25, r21
     e3e:	a6 07       	cpc	r26, r22
     e40:	b7 07       	cpc	r27, r23
     e42:	a1 f4       	brne	.+40     	; 0xe6c <__vector_11+0x96>
		{
			TCNT0 = TIMER0_PRELOAD;
     e44:	80 91 c9 00 	lds	r24, 0x00C9	; 0x8000c9 <TIMER0_PRELOAD>
     e48:	82 bf       	out	0x32, r24	; 50
			TIMER0_PFunISRfun_OVF((void *)TIMER0_PvidISRparameter_OVF);
     e4a:	e0 91 d0 00 	lds	r30, 0x00D0	; 0x8000d0 <TIMER0_PFunISRfun_OVF>
     e4e:	f0 91 d1 00 	lds	r31, 0x00D1	; 0x8000d1 <TIMER0_PFunISRfun_OVF+0x1>
     e52:	80 91 ce 00 	lds	r24, 0x00CE	; 0x8000ce <TIMER0_PvidISRparameter_OVF>
     e56:	90 91 cf 00 	lds	r25, 0x00CF	; 0x8000cf <TIMER0_PvidISRparameter_OVF+0x1>
     e5a:	09 95       	icall
			Local_u32Counter = 0;
     e5c:	10 92 c1 00 	sts	0x00C1, r1	; 0x8000c1 <Local_u32Counter.1659>
     e60:	10 92 c2 00 	sts	0x00C2, r1	; 0x8000c2 <Local_u32Counter.1659+0x1>
     e64:	10 92 c3 00 	sts	0x00C3, r1	; 0x8000c3 <Local_u32Counter.1659+0x2>
     e68:	10 92 c4 00 	sts	0x00C4, r1	; 0x8000c4 <Local_u32Counter.1659+0x3>
		}
	}
}
     e6c:	ff 91       	pop	r31
     e6e:	ef 91       	pop	r30
     e70:	bf 91       	pop	r27
     e72:	af 91       	pop	r26
     e74:	9f 91       	pop	r25
     e76:	8f 91       	pop	r24
     e78:	7f 91       	pop	r23
     e7a:	6f 91       	pop	r22
     e7c:	5f 91       	pop	r21
     e7e:	4f 91       	pop	r20
     e80:	3f 91       	pop	r19
     e82:	2f 91       	pop	r18
     e84:	0f 90       	pop	r0
     e86:	0f be       	out	0x3f, r0	; 63
     e88:	0f 90       	pop	r0
     e8a:	1f 90       	pop	r1
     e8c:	18 95       	reti

00000e8e <__vector_10>:

ISR(VECT_TIMER0_CTC)
{
     e8e:	1f 92       	push	r1
     e90:	0f 92       	push	r0
     e92:	0f b6       	in	r0, 0x3f	; 63
     e94:	0f 92       	push	r0
     e96:	11 24       	eor	r1, r1
     e98:	2f 93       	push	r18
     e9a:	3f 93       	push	r19
     e9c:	4f 93       	push	r20
     e9e:	5f 93       	push	r21
     ea0:	6f 93       	push	r22
     ea2:	7f 93       	push	r23
     ea4:	8f 93       	push	r24
     ea6:	9f 93       	push	r25
     ea8:	af 93       	push	r26
     eaa:	bf 93       	push	r27
     eac:	ef 93       	push	r30
     eae:	ff 93       	push	r31
	if(TIMER0_PFunISRfun_CTC != NULL)
     eb0:	e0 91 cc 00 	lds	r30, 0x00CC	; 0x8000cc <TIMER0_PFunISRfun_CTC>
     eb4:	f0 91 cd 00 	lds	r31, 0x00CD	; 0x8000cd <TIMER0_PFunISRfun_CTC+0x1>
     eb8:	30 97       	sbiw	r30, 0x00	; 0
     eba:	29 f0       	breq	.+10     	; 0xec6 <__vector_10+0x38>
	{
		TIMER0_PFunISRfun_CTC((void *)TIMER0_PvidISRparameter_CTC);
     ebc:	80 91 ca 00 	lds	r24, 0x00CA	; 0x8000ca <TIMER0_PvidISRparameter_CTC>
     ec0:	90 91 cb 00 	lds	r25, 0x00CB	; 0x8000cb <TIMER0_PvidISRparameter_CTC+0x1>
     ec4:	09 95       	icall
	}
     ec6:	ff 91       	pop	r31
     ec8:	ef 91       	pop	r30
     eca:	bf 91       	pop	r27
     ecc:	af 91       	pop	r26
     ece:	9f 91       	pop	r25
     ed0:	8f 91       	pop	r24
     ed2:	7f 91       	pop	r23
     ed4:	6f 91       	pop	r22
     ed6:	5f 91       	pop	r21
     ed8:	4f 91       	pop	r20
     eda:	3f 91       	pop	r19
     edc:	2f 91       	pop	r18
     ede:	0f 90       	pop	r0
     ee0:	0f be       	out	0x3f, r0	; 63
     ee2:	0f 90       	pop	r0
     ee4:	1f 90       	pop	r1
     ee6:	18 95       	reti

00000ee8 <__subsf3>:
     ee8:	50 58       	subi	r21, 0x80	; 128

00000eea <__addsf3>:
     eea:	bb 27       	eor	r27, r27
     eec:	aa 27       	eor	r26, r26
     eee:	0e 94 8c 07 	call	0xf18	; 0xf18 <__addsf3x>
     ef2:	0c 94 ff 08 	jmp	0x11fe	; 0x11fe <__fp_round>
     ef6:	0e 94 f1 08 	call	0x11e2	; 0x11e2 <__fp_pscA>
     efa:	38 f0       	brcs	.+14     	; 0xf0a <__addsf3+0x20>
     efc:	0e 94 f8 08 	call	0x11f0	; 0x11f0 <__fp_pscB>
     f00:	20 f0       	brcs	.+8      	; 0xf0a <__addsf3+0x20>
     f02:	39 f4       	brne	.+14     	; 0xf12 <__addsf3+0x28>
     f04:	9f 3f       	cpi	r25, 0xFF	; 255
     f06:	19 f4       	brne	.+6      	; 0xf0e <__addsf3+0x24>
     f08:	26 f4       	brtc	.+8      	; 0xf12 <__addsf3+0x28>
     f0a:	0c 94 ee 08 	jmp	0x11dc	; 0x11dc <__fp_nan>
     f0e:	0e f4       	brtc	.+2      	; 0xf12 <__addsf3+0x28>
     f10:	e0 95       	com	r30
     f12:	e7 fb       	bst	r30, 7
     f14:	0c 94 e8 08 	jmp	0x11d0	; 0x11d0 <__fp_inf>

00000f18 <__addsf3x>:
     f18:	e9 2f       	mov	r30, r25
     f1a:	0e 94 10 09 	call	0x1220	; 0x1220 <__fp_split3>
     f1e:	58 f3       	brcs	.-42     	; 0xef6 <__addsf3+0xc>
     f20:	ba 17       	cp	r27, r26
     f22:	62 07       	cpc	r22, r18
     f24:	73 07       	cpc	r23, r19
     f26:	84 07       	cpc	r24, r20
     f28:	95 07       	cpc	r25, r21
     f2a:	20 f0       	brcs	.+8      	; 0xf34 <__addsf3x+0x1c>
     f2c:	79 f4       	brne	.+30     	; 0xf4c <__addsf3x+0x34>
     f2e:	a6 f5       	brtc	.+104    	; 0xf98 <__addsf3x+0x80>
     f30:	0c 94 32 09 	jmp	0x1264	; 0x1264 <__fp_zero>
     f34:	0e f4       	brtc	.+2      	; 0xf38 <__addsf3x+0x20>
     f36:	e0 95       	com	r30
     f38:	0b 2e       	mov	r0, r27
     f3a:	ba 2f       	mov	r27, r26
     f3c:	a0 2d       	mov	r26, r0
     f3e:	0b 01       	movw	r0, r22
     f40:	b9 01       	movw	r22, r18
     f42:	90 01       	movw	r18, r0
     f44:	0c 01       	movw	r0, r24
     f46:	ca 01       	movw	r24, r20
     f48:	a0 01       	movw	r20, r0
     f4a:	11 24       	eor	r1, r1
     f4c:	ff 27       	eor	r31, r31
     f4e:	59 1b       	sub	r21, r25
     f50:	99 f0       	breq	.+38     	; 0xf78 <__addsf3x+0x60>
     f52:	59 3f       	cpi	r21, 0xF9	; 249
     f54:	50 f4       	brcc	.+20     	; 0xf6a <__addsf3x+0x52>
     f56:	50 3e       	cpi	r21, 0xE0	; 224
     f58:	68 f1       	brcs	.+90     	; 0xfb4 <__addsf3x+0x9c>
     f5a:	1a 16       	cp	r1, r26
     f5c:	f0 40       	sbci	r31, 0x00	; 0
     f5e:	a2 2f       	mov	r26, r18
     f60:	23 2f       	mov	r18, r19
     f62:	34 2f       	mov	r19, r20
     f64:	44 27       	eor	r20, r20
     f66:	58 5f       	subi	r21, 0xF8	; 248
     f68:	f3 cf       	rjmp	.-26     	; 0xf50 <__addsf3x+0x38>
     f6a:	46 95       	lsr	r20
     f6c:	37 95       	ror	r19
     f6e:	27 95       	ror	r18
     f70:	a7 95       	ror	r26
     f72:	f0 40       	sbci	r31, 0x00	; 0
     f74:	53 95       	inc	r21
     f76:	c9 f7       	brne	.-14     	; 0xf6a <__addsf3x+0x52>
     f78:	7e f4       	brtc	.+30     	; 0xf98 <__addsf3x+0x80>
     f7a:	1f 16       	cp	r1, r31
     f7c:	ba 0b       	sbc	r27, r26
     f7e:	62 0b       	sbc	r22, r18
     f80:	73 0b       	sbc	r23, r19
     f82:	84 0b       	sbc	r24, r20
     f84:	ba f0       	brmi	.+46     	; 0xfb4 <__addsf3x+0x9c>
     f86:	91 50       	subi	r25, 0x01	; 1
     f88:	a1 f0       	breq	.+40     	; 0xfb2 <__addsf3x+0x9a>
     f8a:	ff 0f       	add	r31, r31
     f8c:	bb 1f       	adc	r27, r27
     f8e:	66 1f       	adc	r22, r22
     f90:	77 1f       	adc	r23, r23
     f92:	88 1f       	adc	r24, r24
     f94:	c2 f7       	brpl	.-16     	; 0xf86 <__addsf3x+0x6e>
     f96:	0e c0       	rjmp	.+28     	; 0xfb4 <__addsf3x+0x9c>
     f98:	ba 0f       	add	r27, r26
     f9a:	62 1f       	adc	r22, r18
     f9c:	73 1f       	adc	r23, r19
     f9e:	84 1f       	adc	r24, r20
     fa0:	48 f4       	brcc	.+18     	; 0xfb4 <__addsf3x+0x9c>
     fa2:	87 95       	ror	r24
     fa4:	77 95       	ror	r23
     fa6:	67 95       	ror	r22
     fa8:	b7 95       	ror	r27
     faa:	f7 95       	ror	r31
     fac:	9e 3f       	cpi	r25, 0xFE	; 254
     fae:	08 f0       	brcs	.+2      	; 0xfb2 <__addsf3x+0x9a>
     fb0:	b0 cf       	rjmp	.-160    	; 0xf12 <__addsf3+0x28>
     fb2:	93 95       	inc	r25
     fb4:	88 0f       	add	r24, r24
     fb6:	08 f0       	brcs	.+2      	; 0xfba <__addsf3x+0xa2>
     fb8:	99 27       	eor	r25, r25
     fba:	ee 0f       	add	r30, r30
     fbc:	97 95       	ror	r25
     fbe:	87 95       	ror	r24
     fc0:	08 95       	ret

00000fc2 <__cmpsf2>:
     fc2:	0e 94 c4 08 	call	0x1188	; 0x1188 <__fp_cmp>
     fc6:	08 f4       	brcc	.+2      	; 0xfca <__cmpsf2+0x8>
     fc8:	81 e0       	ldi	r24, 0x01	; 1
     fca:	08 95       	ret

00000fcc <__divsf3>:
     fcc:	0e 94 fa 07 	call	0xff4	; 0xff4 <__divsf3x>
     fd0:	0c 94 ff 08 	jmp	0x11fe	; 0x11fe <__fp_round>
     fd4:	0e 94 f8 08 	call	0x11f0	; 0x11f0 <__fp_pscB>
     fd8:	58 f0       	brcs	.+22     	; 0xff0 <__divsf3+0x24>
     fda:	0e 94 f1 08 	call	0x11e2	; 0x11e2 <__fp_pscA>
     fde:	40 f0       	brcs	.+16     	; 0xff0 <__divsf3+0x24>
     fe0:	29 f4       	brne	.+10     	; 0xfec <__divsf3+0x20>
     fe2:	5f 3f       	cpi	r21, 0xFF	; 255
     fe4:	29 f0       	breq	.+10     	; 0xff0 <__divsf3+0x24>
     fe6:	0c 94 e8 08 	jmp	0x11d0	; 0x11d0 <__fp_inf>
     fea:	51 11       	cpse	r21, r1
     fec:	0c 94 33 09 	jmp	0x1266	; 0x1266 <__fp_szero>
     ff0:	0c 94 ee 08 	jmp	0x11dc	; 0x11dc <__fp_nan>

00000ff4 <__divsf3x>:
     ff4:	0e 94 10 09 	call	0x1220	; 0x1220 <__fp_split3>
     ff8:	68 f3       	brcs	.-38     	; 0xfd4 <__divsf3+0x8>

00000ffa <__divsf3_pse>:
     ffa:	99 23       	and	r25, r25
     ffc:	b1 f3       	breq	.-20     	; 0xfea <__divsf3+0x1e>
     ffe:	55 23       	and	r21, r21
    1000:	91 f3       	breq	.-28     	; 0xfe6 <__divsf3+0x1a>
    1002:	95 1b       	sub	r25, r21
    1004:	55 0b       	sbc	r21, r21
    1006:	bb 27       	eor	r27, r27
    1008:	aa 27       	eor	r26, r26
    100a:	62 17       	cp	r22, r18
    100c:	73 07       	cpc	r23, r19
    100e:	84 07       	cpc	r24, r20
    1010:	38 f0       	brcs	.+14     	; 0x1020 <__divsf3_pse+0x26>
    1012:	9f 5f       	subi	r25, 0xFF	; 255
    1014:	5f 4f       	sbci	r21, 0xFF	; 255
    1016:	22 0f       	add	r18, r18
    1018:	33 1f       	adc	r19, r19
    101a:	44 1f       	adc	r20, r20
    101c:	aa 1f       	adc	r26, r26
    101e:	a9 f3       	breq	.-22     	; 0x100a <__divsf3_pse+0x10>
    1020:	35 d0       	rcall	.+106    	; 0x108c <__divsf3_pse+0x92>
    1022:	0e 2e       	mov	r0, r30
    1024:	3a f0       	brmi	.+14     	; 0x1034 <__divsf3_pse+0x3a>
    1026:	e0 e8       	ldi	r30, 0x80	; 128
    1028:	32 d0       	rcall	.+100    	; 0x108e <__divsf3_pse+0x94>
    102a:	91 50       	subi	r25, 0x01	; 1
    102c:	50 40       	sbci	r21, 0x00	; 0
    102e:	e6 95       	lsr	r30
    1030:	00 1c       	adc	r0, r0
    1032:	ca f7       	brpl	.-14     	; 0x1026 <__divsf3_pse+0x2c>
    1034:	2b d0       	rcall	.+86     	; 0x108c <__divsf3_pse+0x92>
    1036:	fe 2f       	mov	r31, r30
    1038:	29 d0       	rcall	.+82     	; 0x108c <__divsf3_pse+0x92>
    103a:	66 0f       	add	r22, r22
    103c:	77 1f       	adc	r23, r23
    103e:	88 1f       	adc	r24, r24
    1040:	bb 1f       	adc	r27, r27
    1042:	26 17       	cp	r18, r22
    1044:	37 07       	cpc	r19, r23
    1046:	48 07       	cpc	r20, r24
    1048:	ab 07       	cpc	r26, r27
    104a:	b0 e8       	ldi	r27, 0x80	; 128
    104c:	09 f0       	breq	.+2      	; 0x1050 <__divsf3_pse+0x56>
    104e:	bb 0b       	sbc	r27, r27
    1050:	80 2d       	mov	r24, r0
    1052:	bf 01       	movw	r22, r30
    1054:	ff 27       	eor	r31, r31
    1056:	93 58       	subi	r25, 0x83	; 131
    1058:	5f 4f       	sbci	r21, 0xFF	; 255
    105a:	3a f0       	brmi	.+14     	; 0x106a <__divsf3_pse+0x70>
    105c:	9e 3f       	cpi	r25, 0xFE	; 254
    105e:	51 05       	cpc	r21, r1
    1060:	78 f0       	brcs	.+30     	; 0x1080 <__divsf3_pse+0x86>
    1062:	0c 94 e8 08 	jmp	0x11d0	; 0x11d0 <__fp_inf>
    1066:	0c 94 33 09 	jmp	0x1266	; 0x1266 <__fp_szero>
    106a:	5f 3f       	cpi	r21, 0xFF	; 255
    106c:	e4 f3       	brlt	.-8      	; 0x1066 <__divsf3_pse+0x6c>
    106e:	98 3e       	cpi	r25, 0xE8	; 232
    1070:	d4 f3       	brlt	.-12     	; 0x1066 <__divsf3_pse+0x6c>
    1072:	86 95       	lsr	r24
    1074:	77 95       	ror	r23
    1076:	67 95       	ror	r22
    1078:	b7 95       	ror	r27
    107a:	f7 95       	ror	r31
    107c:	9f 5f       	subi	r25, 0xFF	; 255
    107e:	c9 f7       	brne	.-14     	; 0x1072 <__divsf3_pse+0x78>
    1080:	88 0f       	add	r24, r24
    1082:	91 1d       	adc	r25, r1
    1084:	96 95       	lsr	r25
    1086:	87 95       	ror	r24
    1088:	97 f9       	bld	r25, 7
    108a:	08 95       	ret
    108c:	e1 e0       	ldi	r30, 0x01	; 1
    108e:	66 0f       	add	r22, r22
    1090:	77 1f       	adc	r23, r23
    1092:	88 1f       	adc	r24, r24
    1094:	bb 1f       	adc	r27, r27
    1096:	62 17       	cp	r22, r18
    1098:	73 07       	cpc	r23, r19
    109a:	84 07       	cpc	r24, r20
    109c:	ba 07       	cpc	r27, r26
    109e:	20 f0       	brcs	.+8      	; 0x10a8 <__divsf3_pse+0xae>
    10a0:	62 1b       	sub	r22, r18
    10a2:	73 0b       	sbc	r23, r19
    10a4:	84 0b       	sbc	r24, r20
    10a6:	ba 0b       	sbc	r27, r26
    10a8:	ee 1f       	adc	r30, r30
    10aa:	88 f7       	brcc	.-30     	; 0x108e <__divsf3_pse+0x94>
    10ac:	e0 95       	com	r30
    10ae:	08 95       	ret

000010b0 <__fixunssfsi>:
    10b0:	0e 94 18 09 	call	0x1230	; 0x1230 <__fp_splitA>
    10b4:	88 f0       	brcs	.+34     	; 0x10d8 <__fixunssfsi+0x28>
    10b6:	9f 57       	subi	r25, 0x7F	; 127
    10b8:	98 f0       	brcs	.+38     	; 0x10e0 <__fixunssfsi+0x30>
    10ba:	b9 2f       	mov	r27, r25
    10bc:	99 27       	eor	r25, r25
    10be:	b7 51       	subi	r27, 0x17	; 23
    10c0:	b0 f0       	brcs	.+44     	; 0x10ee <__fixunssfsi+0x3e>
    10c2:	e1 f0       	breq	.+56     	; 0x10fc <__fixunssfsi+0x4c>
    10c4:	66 0f       	add	r22, r22
    10c6:	77 1f       	adc	r23, r23
    10c8:	88 1f       	adc	r24, r24
    10ca:	99 1f       	adc	r25, r25
    10cc:	1a f0       	brmi	.+6      	; 0x10d4 <__fixunssfsi+0x24>
    10ce:	ba 95       	dec	r27
    10d0:	c9 f7       	brne	.-14     	; 0x10c4 <__fixunssfsi+0x14>
    10d2:	14 c0       	rjmp	.+40     	; 0x10fc <__fixunssfsi+0x4c>
    10d4:	b1 30       	cpi	r27, 0x01	; 1
    10d6:	91 f0       	breq	.+36     	; 0x10fc <__fixunssfsi+0x4c>
    10d8:	0e 94 32 09 	call	0x1264	; 0x1264 <__fp_zero>
    10dc:	b1 e0       	ldi	r27, 0x01	; 1
    10de:	08 95       	ret
    10e0:	0c 94 32 09 	jmp	0x1264	; 0x1264 <__fp_zero>
    10e4:	67 2f       	mov	r22, r23
    10e6:	78 2f       	mov	r23, r24
    10e8:	88 27       	eor	r24, r24
    10ea:	b8 5f       	subi	r27, 0xF8	; 248
    10ec:	39 f0       	breq	.+14     	; 0x10fc <__fixunssfsi+0x4c>
    10ee:	b9 3f       	cpi	r27, 0xF9	; 249
    10f0:	cc f3       	brlt	.-14     	; 0x10e4 <__fixunssfsi+0x34>
    10f2:	86 95       	lsr	r24
    10f4:	77 95       	ror	r23
    10f6:	67 95       	ror	r22
    10f8:	b3 95       	inc	r27
    10fa:	d9 f7       	brne	.-10     	; 0x10f2 <__fixunssfsi+0x42>
    10fc:	3e f4       	brtc	.+14     	; 0x110c <__fixunssfsi+0x5c>
    10fe:	90 95       	com	r25
    1100:	80 95       	com	r24
    1102:	70 95       	com	r23
    1104:	61 95       	neg	r22
    1106:	7f 4f       	sbci	r23, 0xFF	; 255
    1108:	8f 4f       	sbci	r24, 0xFF	; 255
    110a:	9f 4f       	sbci	r25, 0xFF	; 255
    110c:	08 95       	ret

0000110e <__floatunsisf>:
    110e:	e8 94       	clt
    1110:	09 c0       	rjmp	.+18     	; 0x1124 <__floatsisf+0x12>

00001112 <__floatsisf>:
    1112:	97 fb       	bst	r25, 7
    1114:	3e f4       	brtc	.+14     	; 0x1124 <__floatsisf+0x12>
    1116:	90 95       	com	r25
    1118:	80 95       	com	r24
    111a:	70 95       	com	r23
    111c:	61 95       	neg	r22
    111e:	7f 4f       	sbci	r23, 0xFF	; 255
    1120:	8f 4f       	sbci	r24, 0xFF	; 255
    1122:	9f 4f       	sbci	r25, 0xFF	; 255
    1124:	99 23       	and	r25, r25
    1126:	a9 f0       	breq	.+42     	; 0x1152 <__floatsisf+0x40>
    1128:	f9 2f       	mov	r31, r25
    112a:	96 e9       	ldi	r25, 0x96	; 150
    112c:	bb 27       	eor	r27, r27
    112e:	93 95       	inc	r25
    1130:	f6 95       	lsr	r31
    1132:	87 95       	ror	r24
    1134:	77 95       	ror	r23
    1136:	67 95       	ror	r22
    1138:	b7 95       	ror	r27
    113a:	f1 11       	cpse	r31, r1
    113c:	f8 cf       	rjmp	.-16     	; 0x112e <__floatsisf+0x1c>
    113e:	fa f4       	brpl	.+62     	; 0x117e <__floatsisf+0x6c>
    1140:	bb 0f       	add	r27, r27
    1142:	11 f4       	brne	.+4      	; 0x1148 <__floatsisf+0x36>
    1144:	60 ff       	sbrs	r22, 0
    1146:	1b c0       	rjmp	.+54     	; 0x117e <__floatsisf+0x6c>
    1148:	6f 5f       	subi	r22, 0xFF	; 255
    114a:	7f 4f       	sbci	r23, 0xFF	; 255
    114c:	8f 4f       	sbci	r24, 0xFF	; 255
    114e:	9f 4f       	sbci	r25, 0xFF	; 255
    1150:	16 c0       	rjmp	.+44     	; 0x117e <__floatsisf+0x6c>
    1152:	88 23       	and	r24, r24
    1154:	11 f0       	breq	.+4      	; 0x115a <__floatsisf+0x48>
    1156:	96 e9       	ldi	r25, 0x96	; 150
    1158:	11 c0       	rjmp	.+34     	; 0x117c <__floatsisf+0x6a>
    115a:	77 23       	and	r23, r23
    115c:	21 f0       	breq	.+8      	; 0x1166 <__floatsisf+0x54>
    115e:	9e e8       	ldi	r25, 0x8E	; 142
    1160:	87 2f       	mov	r24, r23
    1162:	76 2f       	mov	r23, r22
    1164:	05 c0       	rjmp	.+10     	; 0x1170 <__floatsisf+0x5e>
    1166:	66 23       	and	r22, r22
    1168:	71 f0       	breq	.+28     	; 0x1186 <__floatsisf+0x74>
    116a:	96 e8       	ldi	r25, 0x86	; 134
    116c:	86 2f       	mov	r24, r22
    116e:	70 e0       	ldi	r23, 0x00	; 0
    1170:	60 e0       	ldi	r22, 0x00	; 0
    1172:	2a f0       	brmi	.+10     	; 0x117e <__floatsisf+0x6c>
    1174:	9a 95       	dec	r25
    1176:	66 0f       	add	r22, r22
    1178:	77 1f       	adc	r23, r23
    117a:	88 1f       	adc	r24, r24
    117c:	da f7       	brpl	.-10     	; 0x1174 <__floatsisf+0x62>
    117e:	88 0f       	add	r24, r24
    1180:	96 95       	lsr	r25
    1182:	87 95       	ror	r24
    1184:	97 f9       	bld	r25, 7
    1186:	08 95       	ret

00001188 <__fp_cmp>:
    1188:	99 0f       	add	r25, r25
    118a:	00 08       	sbc	r0, r0
    118c:	55 0f       	add	r21, r21
    118e:	aa 0b       	sbc	r26, r26
    1190:	e0 e8       	ldi	r30, 0x80	; 128
    1192:	fe ef       	ldi	r31, 0xFE	; 254
    1194:	16 16       	cp	r1, r22
    1196:	17 06       	cpc	r1, r23
    1198:	e8 07       	cpc	r30, r24
    119a:	f9 07       	cpc	r31, r25
    119c:	c0 f0       	brcs	.+48     	; 0x11ce <__fp_cmp+0x46>
    119e:	12 16       	cp	r1, r18
    11a0:	13 06       	cpc	r1, r19
    11a2:	e4 07       	cpc	r30, r20
    11a4:	f5 07       	cpc	r31, r21
    11a6:	98 f0       	brcs	.+38     	; 0x11ce <__fp_cmp+0x46>
    11a8:	62 1b       	sub	r22, r18
    11aa:	73 0b       	sbc	r23, r19
    11ac:	84 0b       	sbc	r24, r20
    11ae:	95 0b       	sbc	r25, r21
    11b0:	39 f4       	brne	.+14     	; 0x11c0 <__fp_cmp+0x38>
    11b2:	0a 26       	eor	r0, r26
    11b4:	61 f0       	breq	.+24     	; 0x11ce <__fp_cmp+0x46>
    11b6:	23 2b       	or	r18, r19
    11b8:	24 2b       	or	r18, r20
    11ba:	25 2b       	or	r18, r21
    11bc:	21 f4       	brne	.+8      	; 0x11c6 <__fp_cmp+0x3e>
    11be:	08 95       	ret
    11c0:	0a 26       	eor	r0, r26
    11c2:	09 f4       	brne	.+2      	; 0x11c6 <__fp_cmp+0x3e>
    11c4:	a1 40       	sbci	r26, 0x01	; 1
    11c6:	a6 95       	lsr	r26
    11c8:	8f ef       	ldi	r24, 0xFF	; 255
    11ca:	81 1d       	adc	r24, r1
    11cc:	81 1d       	adc	r24, r1
    11ce:	08 95       	ret

000011d0 <__fp_inf>:
    11d0:	97 f9       	bld	r25, 7
    11d2:	9f 67       	ori	r25, 0x7F	; 127
    11d4:	80 e8       	ldi	r24, 0x80	; 128
    11d6:	70 e0       	ldi	r23, 0x00	; 0
    11d8:	60 e0       	ldi	r22, 0x00	; 0
    11da:	08 95       	ret

000011dc <__fp_nan>:
    11dc:	9f ef       	ldi	r25, 0xFF	; 255
    11de:	80 ec       	ldi	r24, 0xC0	; 192
    11e0:	08 95       	ret

000011e2 <__fp_pscA>:
    11e2:	00 24       	eor	r0, r0
    11e4:	0a 94       	dec	r0
    11e6:	16 16       	cp	r1, r22
    11e8:	17 06       	cpc	r1, r23
    11ea:	18 06       	cpc	r1, r24
    11ec:	09 06       	cpc	r0, r25
    11ee:	08 95       	ret

000011f0 <__fp_pscB>:
    11f0:	00 24       	eor	r0, r0
    11f2:	0a 94       	dec	r0
    11f4:	12 16       	cp	r1, r18
    11f6:	13 06       	cpc	r1, r19
    11f8:	14 06       	cpc	r1, r20
    11fa:	05 06       	cpc	r0, r21
    11fc:	08 95       	ret

000011fe <__fp_round>:
    11fe:	09 2e       	mov	r0, r25
    1200:	03 94       	inc	r0
    1202:	00 0c       	add	r0, r0
    1204:	11 f4       	brne	.+4      	; 0x120a <__fp_round+0xc>
    1206:	88 23       	and	r24, r24
    1208:	52 f0       	brmi	.+20     	; 0x121e <__fp_round+0x20>
    120a:	bb 0f       	add	r27, r27
    120c:	40 f4       	brcc	.+16     	; 0x121e <__fp_round+0x20>
    120e:	bf 2b       	or	r27, r31
    1210:	11 f4       	brne	.+4      	; 0x1216 <__fp_round+0x18>
    1212:	60 ff       	sbrs	r22, 0
    1214:	04 c0       	rjmp	.+8      	; 0x121e <__fp_round+0x20>
    1216:	6f 5f       	subi	r22, 0xFF	; 255
    1218:	7f 4f       	sbci	r23, 0xFF	; 255
    121a:	8f 4f       	sbci	r24, 0xFF	; 255
    121c:	9f 4f       	sbci	r25, 0xFF	; 255
    121e:	08 95       	ret

00001220 <__fp_split3>:
    1220:	57 fd       	sbrc	r21, 7
    1222:	90 58       	subi	r25, 0x80	; 128
    1224:	44 0f       	add	r20, r20
    1226:	55 1f       	adc	r21, r21
    1228:	59 f0       	breq	.+22     	; 0x1240 <__fp_splitA+0x10>
    122a:	5f 3f       	cpi	r21, 0xFF	; 255
    122c:	71 f0       	breq	.+28     	; 0x124a <__fp_splitA+0x1a>
    122e:	47 95       	ror	r20

00001230 <__fp_splitA>:
    1230:	88 0f       	add	r24, r24
    1232:	97 fb       	bst	r25, 7
    1234:	99 1f       	adc	r25, r25
    1236:	61 f0       	breq	.+24     	; 0x1250 <__fp_splitA+0x20>
    1238:	9f 3f       	cpi	r25, 0xFF	; 255
    123a:	79 f0       	breq	.+30     	; 0x125a <__fp_splitA+0x2a>
    123c:	87 95       	ror	r24
    123e:	08 95       	ret
    1240:	12 16       	cp	r1, r18
    1242:	13 06       	cpc	r1, r19
    1244:	14 06       	cpc	r1, r20
    1246:	55 1f       	adc	r21, r21
    1248:	f2 cf       	rjmp	.-28     	; 0x122e <__fp_split3+0xe>
    124a:	46 95       	lsr	r20
    124c:	f1 df       	rcall	.-30     	; 0x1230 <__fp_splitA>
    124e:	08 c0       	rjmp	.+16     	; 0x1260 <__fp_splitA+0x30>
    1250:	16 16       	cp	r1, r22
    1252:	17 06       	cpc	r1, r23
    1254:	18 06       	cpc	r1, r24
    1256:	99 1f       	adc	r25, r25
    1258:	f1 cf       	rjmp	.-30     	; 0x123c <__fp_splitA+0xc>
    125a:	86 95       	lsr	r24
    125c:	71 05       	cpc	r23, r1
    125e:	61 05       	cpc	r22, r1
    1260:	08 94       	sec
    1262:	08 95       	ret

00001264 <__fp_zero>:
    1264:	e8 94       	clt

00001266 <__fp_szero>:
    1266:	bb 27       	eor	r27, r27
    1268:	66 27       	eor	r22, r22
    126a:	77 27       	eor	r23, r23
    126c:	cb 01       	movw	r24, r22
    126e:	97 f9       	bld	r25, 7
    1270:	08 95       	ret

00001272 <__mulsf3>:
    1272:	0e 94 4c 09 	call	0x1298	; 0x1298 <__mulsf3x>
    1276:	0c 94 ff 08 	jmp	0x11fe	; 0x11fe <__fp_round>
    127a:	0e 94 f1 08 	call	0x11e2	; 0x11e2 <__fp_pscA>
    127e:	38 f0       	brcs	.+14     	; 0x128e <__mulsf3+0x1c>
    1280:	0e 94 f8 08 	call	0x11f0	; 0x11f0 <__fp_pscB>
    1284:	20 f0       	brcs	.+8      	; 0x128e <__mulsf3+0x1c>
    1286:	95 23       	and	r25, r21
    1288:	11 f0       	breq	.+4      	; 0x128e <__mulsf3+0x1c>
    128a:	0c 94 e8 08 	jmp	0x11d0	; 0x11d0 <__fp_inf>
    128e:	0c 94 ee 08 	jmp	0x11dc	; 0x11dc <__fp_nan>
    1292:	11 24       	eor	r1, r1
    1294:	0c 94 33 09 	jmp	0x1266	; 0x1266 <__fp_szero>

00001298 <__mulsf3x>:
    1298:	0e 94 10 09 	call	0x1220	; 0x1220 <__fp_split3>
    129c:	70 f3       	brcs	.-36     	; 0x127a <__mulsf3+0x8>

0000129e <__mulsf3_pse>:
    129e:	95 9f       	mul	r25, r21
    12a0:	c1 f3       	breq	.-16     	; 0x1292 <__mulsf3+0x20>
    12a2:	95 0f       	add	r25, r21
    12a4:	50 e0       	ldi	r21, 0x00	; 0
    12a6:	55 1f       	adc	r21, r21
    12a8:	62 9f       	mul	r22, r18
    12aa:	f0 01       	movw	r30, r0
    12ac:	72 9f       	mul	r23, r18
    12ae:	bb 27       	eor	r27, r27
    12b0:	f0 0d       	add	r31, r0
    12b2:	b1 1d       	adc	r27, r1
    12b4:	63 9f       	mul	r22, r19
    12b6:	aa 27       	eor	r26, r26
    12b8:	f0 0d       	add	r31, r0
    12ba:	b1 1d       	adc	r27, r1
    12bc:	aa 1f       	adc	r26, r26
    12be:	64 9f       	mul	r22, r20
    12c0:	66 27       	eor	r22, r22
    12c2:	b0 0d       	add	r27, r0
    12c4:	a1 1d       	adc	r26, r1
    12c6:	66 1f       	adc	r22, r22
    12c8:	82 9f       	mul	r24, r18
    12ca:	22 27       	eor	r18, r18
    12cc:	b0 0d       	add	r27, r0
    12ce:	a1 1d       	adc	r26, r1
    12d0:	62 1f       	adc	r22, r18
    12d2:	73 9f       	mul	r23, r19
    12d4:	b0 0d       	add	r27, r0
    12d6:	a1 1d       	adc	r26, r1
    12d8:	62 1f       	adc	r22, r18
    12da:	83 9f       	mul	r24, r19
    12dc:	a0 0d       	add	r26, r0
    12de:	61 1d       	adc	r22, r1
    12e0:	22 1f       	adc	r18, r18
    12e2:	74 9f       	mul	r23, r20
    12e4:	33 27       	eor	r19, r19
    12e6:	a0 0d       	add	r26, r0
    12e8:	61 1d       	adc	r22, r1
    12ea:	23 1f       	adc	r18, r19
    12ec:	84 9f       	mul	r24, r20
    12ee:	60 0d       	add	r22, r0
    12f0:	21 1d       	adc	r18, r1
    12f2:	82 2f       	mov	r24, r18
    12f4:	76 2f       	mov	r23, r22
    12f6:	6a 2f       	mov	r22, r26
    12f8:	11 24       	eor	r1, r1
    12fa:	9f 57       	subi	r25, 0x7F	; 127
    12fc:	50 40       	sbci	r21, 0x00	; 0
    12fe:	9a f0       	brmi	.+38     	; 0x1326 <__mulsf3_pse+0x88>
    1300:	f1 f0       	breq	.+60     	; 0x133e <__mulsf3_pse+0xa0>
    1302:	88 23       	and	r24, r24
    1304:	4a f0       	brmi	.+18     	; 0x1318 <__mulsf3_pse+0x7a>
    1306:	ee 0f       	add	r30, r30
    1308:	ff 1f       	adc	r31, r31
    130a:	bb 1f       	adc	r27, r27
    130c:	66 1f       	adc	r22, r22
    130e:	77 1f       	adc	r23, r23
    1310:	88 1f       	adc	r24, r24
    1312:	91 50       	subi	r25, 0x01	; 1
    1314:	50 40       	sbci	r21, 0x00	; 0
    1316:	a9 f7       	brne	.-22     	; 0x1302 <__mulsf3_pse+0x64>
    1318:	9e 3f       	cpi	r25, 0xFE	; 254
    131a:	51 05       	cpc	r21, r1
    131c:	80 f0       	brcs	.+32     	; 0x133e <__mulsf3_pse+0xa0>
    131e:	0c 94 e8 08 	jmp	0x11d0	; 0x11d0 <__fp_inf>
    1322:	0c 94 33 09 	jmp	0x1266	; 0x1266 <__fp_szero>
    1326:	5f 3f       	cpi	r21, 0xFF	; 255
    1328:	e4 f3       	brlt	.-8      	; 0x1322 <__mulsf3_pse+0x84>
    132a:	98 3e       	cpi	r25, 0xE8	; 232
    132c:	d4 f3       	brlt	.-12     	; 0x1322 <__mulsf3_pse+0x84>
    132e:	86 95       	lsr	r24
    1330:	77 95       	ror	r23
    1332:	67 95       	ror	r22
    1334:	b7 95       	ror	r27
    1336:	f7 95       	ror	r31
    1338:	e7 95       	ror	r30
    133a:	9f 5f       	subi	r25, 0xFF	; 255
    133c:	c1 f7       	brne	.-16     	; 0x132e <__mulsf3_pse+0x90>
    133e:	fe 2b       	or	r31, r30
    1340:	88 0f       	add	r24, r24
    1342:	91 1d       	adc	r25, r1
    1344:	96 95       	lsr	r25
    1346:	87 95       	ror	r24
    1348:	97 f9       	bld	r25, 7
    134a:	08 95       	ret

0000134c <_exit>:
    134c:	f8 94       	cli

0000134e <__stop_program>:
    134e:	ff cf       	rjmp	.-2      	; 0x134e <__stop_program>
